(lp0
(lp1
S'9667445'
p2
aS'2'
p3
aS'0'
p4
aS'L'
p5
aa(lp6
S'9217997'
p7
ag3
ag4
ag5
aa(lp8
S'9152688'
p9
aS'1'
p10
ag4
aS'R'
p11
aa(lp12
S'9904241'
p13
ag10
ag4
ag11
aa(lp14
S'9217911'
p15
ag10
ag4
ag11
aa(lp16
S'9167460'
p17
ag10
ag4
ag11
aa(lp18
S'9523138'
p19
ag10
ag10
ag11
aa(lp20
S'9958526'
p21
ag3
ag4
ag5
aa(lp22
S'9311154'
p23
ag10
ag10
ag11
aa(lp24
S'9226514'
p25
ag3
ag4
ag5
aa(lp26
S'9472128'
p27
ag10
ag4
ag11
aa(lp28
S'9283486'
p29
ag10
ag4
ag11
aa(lp30
S'9886808'
p31
ag3
ag4
ag5
aa(lp32
S'9679111'
p33
ag3
ag4
ag5
aa(lp34
S'9582261'
p35
ag3
ag4
ag5
aa(lp36
S'9588488'
p37
ag10
ag4
ag11
aa(lp38
S'9088396'
p39
ag3
ag4
ag5
aa(lp40
S'9879069'
p41
ag10
ag4
ag11
aa(lp42
S'9777471'
p43
ag10
ag4
ag11
aa(lp44
S'9527882'
p45
ag3
ag4
ag5
aa(lp46
S'9443135'
p47
ag10
ag10
ag11
aa(lp48
S'9942724'
p49
ag3
ag4
ag5
aa(lp50
S'9555397'
p51
ag10
ag4
ag11
aa(lp52
S'9370170'
p53
ag10
ag4
ag11
aa(lp54
S'9900761'
p55
ag3
ag4
ag5
aa(lp56
S'9641700'
p57
ag3
ag4
ag5
aa(lp58
S'9413039'
p59
ag3
ag4
ag5
aa(lp60
S'9767651'
p61
ag10
ag4
ag11
aa(lp62
S'9644950'
p63
ag10
ag4
ag11
aa(lp64
S'9300212'
p65
ag3
ag4
ag5
aa(lp66
S'9755372'
p67
ag10
ag4
ag11
aa(lp68
S'9034644'
p69
ag3
ag4
ag5
aa(lp70
S'9907012'
p71
ag10
ag10
ag11
aa(lp72
S'9676793'
p73
ag10
ag4
ag11
aa(lp74
S'9336356'
p75
ag3
ag4
ag5
aa(lp76
S'9601162'
p77
ag10
ag4
ag11
aa(lp78
S'9043945'
p79
ag10
ag10
ag11
aa(lp80
S'9992756'
p81
ag3
ag4
ag5
aa(lp82
S'9314340'
p83
ag3
ag4
ag5
aa(lp84
S'9771440'
p85
ag10
ag4
ag11
aa(lp86
S'9309716'
p87
ag3
ag10
ag5
aa(lp88
S'9573975'
p89
ag10
ag4
ag11
aa(lp90
S'9829221'
p91
ag3
ag10
ag5
aa(lp92
S'9222916'
p93
ag3
ag10
ag5
aa(lp94
S'9739820'
p95
ag10
ag10
ag11
aa(lp96
S'9980752'
p97
ag3
ag4
ag5
aa(lp98
S'9566429'
p99
ag10
ag10
ag11
aa(lp100
S'9050966'
p101
ag3
ag4
ag5
aa(lp102
S'9343691'
p103
ag3
ag4
ag5
aa(lp104
S'9726175'
p105
ag3
ag4
ag5
aa(lp106
S'9699340'
p107
ag10
ag4
ag11
aa(lp108
S'9658663'
p109
ag3
ag4
ag5
aa(lp110
S'9910391'
p111
ag3
ag4
ag5
aa(lp112
S'9422075'
p113
ag10
ag4
ag11
aa(lp114
S'9896710'
p115
ag3
ag4
ag5
aa(lp116
S'9401956'
p117
ag3
ag4
ag5
aa(lp118
S'9505935'
p119
ag10
ag4
ag11
aa(lp120
S'9602642'
p121
ag10
ag4
ag11
aa(lp122
S'9473858'
p123
ag3
ag4
ag5
aa(lp124
S'9003175'
p125
ag3
ag4
ag5
aa(lp126
S'9890414'
p127
ag3
ag10
ag5
aa(lp128
S'9387992'
p129
ag3
ag4
ag5
aa(lp130
S'9030418'
p131
ag3
ag4
ag5
aa(lp132
S'9608737'
p133
ag10
ag4
ag11
aa(lp134
S'9699399'
p135
ag10
ag4
ag11
aa(lp136
S'9442298'
p137
ag10
ag4
ag11
aa(lp138
S'9498724'
p139
ag3
ag4
ag5
aa(lp140
S'9267198'
p141
ag10
ag4
ag11
aa(lp142
S'9008934'
p143
ag10
ag10
ag11
aa(lp144
S'9979306'
p145
ag3
ag4
ag5
aa(lp146
S'9029791'
p147
ag3
ag10
ag5
aa(lp148
S'9907767'
p149
ag3
ag4
ag5
aa(lp150
S'9246415'
p151
ag10
ag4
ag11
aa(lp152
S'9549330'
p153
ag10
ag4
ag11
aa(lp154
S'9280181'
p155
ag3
ag4
ag5
aa(lp156
S'9301426'
p157
ag10
ag4
ag11
aa(lp158
S'9328154'
p159
ag3
ag10
ag5
aa(lp160
S'9180492'
p161
ag3
ag4
ag5
aa(lp162
S'9341167'
p163
ag3
ag10
ag5
aa(lp164
S'9879321'
p165
ag10
ag4
ag11
aa(lp166
S'9709444'
p167
ag10
ag4
ag11
aa(lp168
S'9539593'
p169
ag3
ag4
ag5
aa(lp170
S'9692604'
p171
ag3
ag4
ag5
aa(lp172
S'9815779'
p173
ag10
ag4
ag11
aa(lp174
S'9467252'
p175
ag10
ag4
ag11
aa(lp176
S'9853267'
p177
ag3
ag4
ag5
aa(lp178
S'9135902'
p179
ag10
ag10
ag11
aa(lp180
S'9267027'
p181
ag10
ag4
ag11
aa(lp182
S'9096402'
p183
ag10
ag4
ag11
aa(lp184
S'9178212'
p185
ag3
ag4
ag5
aa(lp186
S'9833782'
p187
ag10
ag4
ag11
aa(lp188
S'9036771'
p189
ag3
ag4
ag5
aa(lp190
S'9225581'
p191
ag10
ag4
ag11
aa(lp192
S'9653075'
p193
ag3
ag10
ag5
aa(lp194
S'9100862'
p195
ag10
ag4
ag11
aa(lp196
S'9532970'
p197
ag3
ag4
ag5
aa(lp198
S'9541651'
p199
ag10
ag4
ag11
aa(lp200
S'9478377'
p201
ag3
ag4
ag5
aa(lp202
S'9849852'
p203
ag3
ag4
ag5
aa(lp204
S'9789177'
p205
ag3
ag4
ag5
aa(lp206
S'9072956'
p207
ag10
ag4
ag11
aa(lp208
S'9275281'
p209
ag10
ag4
ag11
aa(lp210
S'9721192'
p211
ag3
ag4
ag5
aa(lp212
S'9364362'
p213
ag10
ag4
ag11
aa(lp214
S'9351479'
p215
ag10
ag4
ag11
aa(lp216
S'9003175'
p217
ag10
ag4
ag11
aa(lp218
S'9854620'
p219
ag10
ag4
ag11
aa(lp220
S'9328376'
p221
ag10
ag4
ag11
aa(lp222
S'9990192'
p223
ag10
ag4
ag11
aa(lp224
S'9405933'
p225
ag3
ag4
ag5
aa(lp226
S'9811924'
p227
ag3
ag4
ag5
aa(lp228
S'9764947'
p229
ag3
ag10
ag5
aa(lp230
S'9513860'
p231
ag3
ag4
ag5
aa(lp232
S'9181790'
p233
ag3
ag4
ag5
aa(lp234
S'9729553'
p235
ag10
ag4
ag11
aa(lp236
S'9894184'
p237
ag3
ag4
ag5
aa(lp238
S'9211049'
p239
ag3
ag4
ag5
aa(lp240
S'9621160'
p241
ag3
ag4
ag5
aa(lp242
S'9302340'
p243
ag10
ag4
ag11
aa(lp244
S'9951821'
p245
ag10
ag4
ag11
aa(lp246
S'9272194'
p247
ag10
ag4
ag11
aa(lp248
S'9184192'
p249
ag10
ag4
ag11
aa(lp250
S'9570949'
p251
ag10
ag10
ag11
aa(lp252
S'9775703'
p253
ag3
ag4
ag5
aa(lp254
S'9673712'
p255
ag3
ag4
ag5
aa(lp256
S'9287295'
p257
ag10
ag4
ag11
aa(lp258
S'9185786'
p259
ag10
ag4
ag11
aa(lp260
S'9692923'
p261
ag3
ag10
ag5
aa(lp262
S'9712471'
p263
ag3
ag10
ag5
aa(lp264
S'9964232'
p265
ag3
ag4
ag5
aa(lp266
S'9840270'
p267
ag3
ag4
ag5
aa(lp268
S'9267027'
p269
ag3
ag4
ag5
aa(lp270
S'9432327'
p271
ag3
ag4
ag5
aa(lp272
S'9548401'
p273
ag3
ag4
ag5
aa(lp274
S'9844581'
p275
ag3
ag10
ag5
aa(lp276
S'9522950'
p277
ag10
ag4
ag11
aa(lp278
S'9846783'
p279
ag10
ag4
ag11
aa(lp280
S'9011949'
p281
ag3
ag4
ag5
aa(lp282
S'9793657'
p283
ag10
ag10
ag11
aa(lp284
S'9993362'
p285
ag10
ag4
ag11
aa(lp286
S'9891187'
p287
ag3
ag4
ag5
aa(lp288
S'9753936'
p289
ag3
ag4
ag5
aa(lp290
S'9523022'
p291
ag3
ag4
ag5
aa(lp292
S'9753894'
p293
ag3
ag4
ag5
aa(lp294
S'9268509'
p295
ag10
ag4
ag11
aa(lp296
S'9880717'
p297
ag10
ag4
ag11
aa(lp298
S'9527520'
p299
ag10
ag4
ag11
aa(lp300
S'9680874'
p301
ag3
ag4
ag5
aa(lp302
S'9395235'
p303
ag3
ag10
ag5
aa(lp304
S'9140556'
p305
ag10
ag4
ag11
aa(lp306
S'9896668'
p307
ag10
ag4
ag11
aa(lp308
S'9355016'
p309
ag3
ag10
ag5
aa(lp310
S'9443223'
p311
ag3
ag4
ag5
aa(lp312
S'9015718'
p313
ag10
ag4
ag11
aa(lp314
S'9408026'
p315
ag3
ag4
ag5
aa(lp316
S'9406033'
p317
ag10
ag4
ag11
aa(lp318
S'9317124'
p319
ag10
ag4
ag11
aa(lp320
S'9444295'
p321
ag10
ag4
ag11
aa(lp322
S'9023784'
p323
ag10
ag4
ag11
aa(lp324
S'9753007'
p325
ag3
ag10
ag5
aa(lp326
S'9075745'
p327
ag3
ag4
ag5
aa(lp328
S'9613237'
p329
ag3
ag4
ag5
aa(lp330
S'9079404'
p331
ag10
ag4
ag11
aa(lp332
S'9817141'
p333
ag3
ag4
ag5
aa(lp334
S'9728094'
p335
ag10
ag10
ag11
aa(lp336
S'9627197'
p337
ag3
ag4
ag5
aa(lp338
S'9273964'
p339
ag10
ag4
ag11
aa(lp340
S'9508858'
p341
ag10
ag4
ag11
aa(lp342
S'9521956'
p343
ag3
ag4
ag5
aa(lp344
S'9590003'
p345
ag10
ag4
ag11
aa(lp346
S'9124024'
p347
ag10
ag4
ag11
aa(lp348
S'9353339'
p349
ag3
ag4
ag5
aa(lp350
S'9844785'
p351
ag3
ag4
ag5
aa(lp352
S'9113192'
p353
ag3
ag4
ag5
aa(lp354
S'9157251'
p355
ag10
ag4
ag11
aa(lp356
S'9532617'
p357
ag10
ag10
ag11
aa(lp358
S'9591478'
p359
ag10
ag4
ag11
aa(lp360
S'9524398'
p361
ag3
ag4
ag5
aa(lp362
S'9329345'
p363
ag3
ag10
ag5
aa(lp364
S'9597417'
p365
ag3
ag4
ag5
aa(lp366
S'9908908'
p367
ag3
ag4
ag5
aa(lp368
S'9293213'
p369
ag10
ag4
ag11
aa(lp370
S'9808818'
p371
ag10
ag10
ag11
aa(lp372
S'9553355'
p373
ag3
ag4
ag5
aa(lp374
S'9307892'
p375
ag10
ag4
ag11
aa(lp376
S'9601644'
p377
ag3
ag4
ag5
aa(lp378
S'9469155'
p379
ag3
ag4
ag5
aa(lp380
S'9445880'
p381
ag3
ag4
ag5
aa(lp382
S'9805687'
p383
ag3
ag4
ag5
aa(lp384
S'9182305'
p385
ag10
ag4
ag11
aa(lp386
S'9689906'
p387
ag10
ag4
ag11
aa(lp388
S'9886808'
p389
ag10
ag4
ag11
aa(lp390
S'9599680'
p391
ag3
ag4
ag5
aa(lp392
S'9046012'
p393
ag10
ag4
ag11
aa(lp394
S'9564716'
p395
ag10
ag4
ag11
aa(lp396
S'9661214'
p397
ag3
ag4
ag5
aa(lp398
S'9247270'
p399
ag3
ag10
ag5
aa(lp400
S'9541155'
p401
ag3
ag4
ag5
aa(lp402
S'9503429'
p403
ag3
ag4
ag5
aa(lp404
S'9828000'
p405
ag3
ag4
ag5
aa(lp406
S'9137248'
p407
ag10
ag4
ag11
aa(lp408
S'9778477'
p409
ag3
ag4
ag5
aa(lp410
S'9501369'
p411
ag3
ag10
ag5
aa(lp412
S'9381777'
p413
ag10
ag10
ag11
aa(lp414
S'9222485'
p415
ag3
ag4
ag5
aa(lp416
S'9888600'
p417
ag10
ag4
ag11
aa(lp418
S'9005321'
p419
ag10
ag10
ag11
aa(lp420
S'9892241'
p421
ag3
ag4
ag5
aa(lp422
S'9748081'
p423
ag10
ag4
ag11
aa(lp424
S'9355648'
p425
ag3
ag10
ag5
aa(lp426
S'9739273'
p427
ag10
ag4
ag11
aa(lp428
S'9704911'
p429
ag3
ag4
ag5
aa(lp430
S'9326434'
p431
ag10
ag4
ag11
aa(lp432
S'9629197'
p433
ag3
ag4
ag5
aa(lp434
S'9412123'
p435
ag10
ag4
ag11
aa(lp436
S'9379540'
p437
ag10
ag10
ag11
aa(lp438
S'9854566'
p439
ag10
ag4
ag11
aa(lp440
S'9511862'
p441
ag3
ag4
ag5
aa(lp442
S'9231784'
p443
ag3
ag4
ag5
aa(lp444
S'9589735'
p445
ag10
ag4
ag11
aa(lp446
S'9556917'
p447
ag10
ag4
ag11
aa(lp448
S'9828044'
p449
ag10
ag4
ag11
aa(lp450
S'9807132'
p451
ag3
ag4
ag5
aa(lp452
S'9079361'
p453
ag3
ag10
ag5
aa(lp454
S'9260036'
p455
ag3
ag10
ag5
aa(lp456
S'9780584'
p457
ag3
ag4
ag5
aa(lp458
S'9217997'
p459
ag10
ag4
ag11
aa(lp460
S'9744568'
p461
ag10
ag4
ag11
aa(lp462
S'9577425'
p463
ag3
ag4
ag5
aa(lp464
S'9833489'
p465
ag10
ag4
ag11
aa(lp466
S'9156943'
p467
ag3
ag4
ag5
aa(lp468
S'9000798'
p469
ag10
ag4
ag11
aa(lp470
S'9556963'
p471
ag3
ag4
ag5
aa(lp472
S'9915677'
p473
ag10
ag4
ag11
aa(lp474
S'9329345'
p475
ag10
ag4
ag11
aa(lp476
S'9330155'
p477
ag3
ag4
ag5
aa(lp478
S'9388978'
p479
ag10
ag4
ag11
aa(lp480
S'9537961'
p481
ag10
ag4
ag11
aa(lp482
S'9839243'
p483
ag10
ag4
ag11
aa(lp484
S'9463778'
p485
ag3
ag4
ag5
aa(lp486
S'9340357'
p487
ag3
ag4
ag5
aa(lp488
S'9170228'
p489
ag10
ag4
ag11
aa(lp490
S'9538954'
p491
ag10
ag4
ag11
aa(lp492
S'9683564'
p493
ag10
ag4
ag11
aa(lp494
S'9402367'
p495
ag10
ag10
ag11
aa(lp496
S'9567019'
p497
ag3
ag4
ag5
aa(lp498
S'9673972'
p499
ag10
ag4
ag11
aa(lp500
S'9991580'
p501
ag10
ag10
ag11
aa(lp502
S'9311411'
p503
ag3
ag4
ag5
aa(lp504
S'9059339'
p505
ag3
ag4
ag5
aa(lp506
S'9566495'
p507
ag10
ag4
ag11
aa(lp508
S'9951775'
p509
ag3
ag4
ag5
aa(lp510
S'9966343'
p511
ag3
ag4
ag5
aa(lp512
S'9770003'
p513
ag3
ag4
ag5
aa(lp514
S'9243046'
p515
ag3
ag4
ag5
aa(lp516
S'9411118'
p517
ag3
ag4
ag5
aa(lp518
S'9337068'
p519
ag10
ag4
ag11
aa(lp520
S'9234485'
p521
ag3
ag4
ag5
aa(lp522
S'9664863'
p523
ag3
ag4
ag5
aa(lp524
S'9622970'
p525
ag10
ag4
ag11
aa(lp526
S'9723972'
p527
ag3
ag4
ag5
aa(lp528
S'9368286'
p529
ag3
ag4
ag5
aa(lp530
S'9407138'
p531
ag10
ag4
ag11
aa(lp532
S'9416423'
p533
ag10
ag4
ag11
aa(lp534
S'9663968'
p535
ag3
ag4
ag5
aa(lp536
S'9368839'
p537
ag10
ag4
ag11
aa(lp538
S'9002316'
p539
ag10
ag4
ag11
aa(lp540
S'9113674'
p541
ag10
ag4
ag11
aa(lp542
S'9539850'
p543
ag3
ag4
ag5
aa(lp544
S'9759454'
p545
ag3
ag4
ag5
aa(lp546
S'9096851'
p547
ag10
ag10
ag11
aa(lp548
S'9053954'
p549
ag3
ag4
ag5
aa(lp550
S'9875724'
p551
ag3
ag4
ag5
aa(lp552
S'9368084'
p553
ag3
ag4
ag5
aa(lp554
S'9578931'
p555
ag3
ag4
ag5
aa(lp556
S'9576572'
p557
ag3
ag4
ag5
aa(lp558
S'9703327'
p559
ag10
ag10
ag11
aa(lp560
S'9564520'
p561
ag3
ag4
ag5
aa(lp562
S'9040958'
p563
ag10
ag4
ag11
aa(lp564
S'9364970'
p565
ag3
ag4
ag5
aa(lp566
S'9539850'
p567
ag10
ag4
ag11
aa(lp568
S'9167541'
p569
ag10
ag10
ag11
aa(lp570
S'9594253'
p571
ag10
ag4
ag11
aa(lp572
S'9493869'
p573
ag3
ag10
ag5
aa(lp574
S'9184108'
p575
ag10
ag4
ag11
aa(lp576
S'9455238'
p577
ag3
ag4
ag5
aa(lp578
S'9740781'
p579
ag3
ag4
ag5
aa(lp580
S'9695621'
p581
ag10
ag10
ag11
aa(lp582
S'9590486'
p583
ag10
ag4
ag11
aa(lp584
S'9314427'
p585
ag3
ag4
ag5
aa(lp586
S'9376360'
p587
ag10
ag4
ag11
aa(lp588
S'9062645'
p589
ag3
ag10
ag5
aa(lp590
S'9641901'
p591
ag10
ag4
ag11
aa(lp592
S'9178581'
p593
ag3
ag4
ag5
aa(lp594
S'9877295'
p595
ag10
ag4
ag11
aa(lp596
S'9425032'
p597
ag10
ag4
ag11
aa(lp598
S'9981798'
p599
ag3
ag10
ag5
aa(lp600
S'9202047'
p601
ag10
ag10
ag11
aa(lp602
S'9967719'
p603
ag10
ag4
ag11
aa(lp604
S'9870268'
p605
ag10
ag4
ag11
aa(lp606
S'9085162'
p607
ag10
ag4
ag11
aa(lp608
S'9534072'
p609
ag3
ag4
ag5
aa(lp610
S'9121285'
p611
ag10
ag4
ag11
aa(lp612
S'9034963'
p613
ag10
ag4
ag11
aa(lp614
S'9439411'
p615
ag10
ag4
ag11
aa(lp616
S'9898404'
p617
ag3
ag4
ag5
aa(lp618
S'9728442'
p619
ag3
ag10
ag5
aa(lp620
S'9553149'
p621
ag3
ag4
ag5
aa(lp622
S'9034644'
p623
ag10
ag4
ag11
aa(lp624
S'9872350'
p625
ag10
ag4
ag11
aa(lp626
S'9985803'
p627
ag10
ag4
ag11
aa(lp628
S'9627716'
p629
ag3
ag4
ag5
aa(lp630
S'9067811'
p631
ag10
ag4
ag11
aa(lp632
S'9010952'
p633
ag3
ag4
ag5
aa(lp634
S'9353703'
p635
ag3
ag4
ag5
aa(lp636
S'9326364'
p637
ag3
ag4
ag5
aa(lp638
S'9452628'
p639
ag10
ag4
ag11
aa(lp640
S'9647679'
p641
ag10
ag4
ag11
aa(lp642
S'9663428'
p643
ag10
ag4
ag11
aa(lp644
S'9441307'
p645
ag3
ag4
ag5
aa(lp646
S'9541155'
p647
ag10
ag4
ag11
aa(lp648
S'9401050'
p649
ag10
ag4
ag11
aa(lp650
S'9242544'
p651
ag10
ag4
ag11
aa(lp652
S'9553908'
p653
ag10
ag4
ag11
aa(lp654
S'9118689'
p655
ag10
ag4
ag11
aa(lp656
S'9152569'
p657
ag10
ag4
ag11
aa(lp658
S'9304828'
p659
ag10
ag4
ag11
aa(lp660
S'9792220'
p661
ag10
ag4
ag11
aa(lp662
S'9538954'
p663
ag3
ag4
ag5
aa(lp664
S'9031930'
p665
ag10
ag10
ag11
aa(lp666
S'9282240'
p667
ag3
ag4
ag5
aa(lp668
S'9874784'
p669
ag10
ag4
ag11
aa(lp670
S'9472254'
p671
ag3
ag4
ag5
aa(lp672
S'9233675'
p673
ag10
ag4
ag11
aa(lp674
S'9433408'
p675
ag3
ag4
ag5
aa(lp676
S'9606012'
p677
ag10
ag10
ag11
aa(lp678
S'9932333'
p679
ag3
ag4
ag5
aa(lp680
S'9795559'
p681
ag10
ag4
ag11
aa(lp682
S'9241424'
p683
ag10
ag4
ag11
aa(lp684
S'9796132'
p685
ag10
ag4
ag11
aa(lp686
S'9979181'
p687
ag10
ag4
ag11
aa(lp688
S'9454413'
p689
ag10
ag4
ag11
aa(lp690
S'9301641'
p691
ag10
ag4
ag11
aa(lp692
S'9726418'
p693
ag10
ag4
ag11
aa(lp694
S'9425183'
p695
ag3
ag4
ag5
aa(lp696
S'9393171'
p697
ag10
ag4
ag11
aa(lp698
S'9316405'
p699
ag3
ag4
ag5
aa(lp700
S'9504627'
p701
ag10
ag4
ag11
aa(lp702
S'9633580'
p703
ag3
ag10
ag5
aa(lp704
S'9719243'
p705
ag3
ag4
ag5
aa(lp706
S'9699399'
p707
ag3
ag4
ag5
aa(lp708
S'9641381'
p709
ag10
ag4
ag11
aa(lp710
S'9973569'
p711
ag3
ag4
ag5
aa(lp712
S'9794849'
p713
ag3
ag4
ag5
aa(lp714
S'9612143'
p715
ag3
ag4
ag5
aa(lp716
S'9487462'
p717
ag3
ag4
ag5
aa(lp718
S'9523742'
p719
ag3
ag4
ag5
aa(lp720
S'9324182'
p721
ag10
ag4
ag11
aa(lp722
S'9372977'
p723
ag10
ag4
ag11
aa(lp724
S'9502727'
p725
ag10
ag10
ag11
aa(lp726
S'9435855'
p727
ag3
ag4
ag5
aa(lp728
S'9465287'
p729
ag10
ag4
ag11
aa(lp730
S'9429147'
p731
ag3
ag10
ag5
aa(lp732
S'9889028'
p733
ag10
ag4
ag11
aa(lp734
S'9067811'
p735
ag3
ag4
ag5
aa(lp736
S'9988421'
p737
ag10
ag10
ag11
aa(lp738
S'9584925'
p739
ag10
ag4
ag11
aa(lp740
S'9895750'
p741
ag3
ag4
ag5
aa(lp742
S'9748587'
p743
ag3
ag4
ag5
aa(lp744
S'9968036'
p745
ag10
ag4
ag11
aa(lp746
S'9668197'
p747
ag10
ag4
ag11
aa(lp748
S'9695881'
p749
ag10
ag4
ag11
aa(lp750
S'9808730'
p751
ag3
ag4
ag5
aa(lp752
S'9435421'
p753
ag3
ag4
ag5
aa(lp754
S'9386983'
p755
ag3
ag4
ag5
aa(lp756
S'9461259'
p757
ag3
ag4
ag5
aa(lp758
S'9686908'
p759
ag10
ag4
ag11
aa(lp760
S'9439881'
p761
ag10
ag4
ag11
aa(lp762
S'9798591'
p763
ag3
ag4
ag5
aa(lp764
S'9835784'
p765
ag3
ag4
ag5
aa(lp766
S'9856744'
p767
ag3
ag4
ag5
aa(lp768
S'9057150'
p769
ag10
ag4
ag11
aa(lp770
S'9677734'
p771
ag3
ag10
ag5
aa(lp772
S'9564280'
p773
ag10
ag4
ag11
aa(lp774
S'9655592'
p775
ag3
ag4
ag5
aa(lp776
S'9158313'
p777
ag10
ag4
ag11
aa(lp778
S'9407587'
p779
ag10
ag4
ag11
aa(lp780
S'9298954'
p781
ag3
ag4
ag5
aa(lp782
S'9690331'
p783
ag3
ag4
ag5
aa(lp784
S'9634690'
p785
ag3
ag10
ag5
aa(lp786
S'9295946'
p787
ag3
ag4
ag5
aa(lp788
S'9634146'
p789
ag3
ag4
ag5
aa(lp790
S'9564036'
p791
ag10
ag4
ag11
aa(lp792
S'9730028'
p793
ag3
ag4
ag5
aa(lp794
S'9518827'
p795
ag10
ag4
ag11
aa(lp796
S'9549162'
p797
ag10
ag4
ag11
aa(lp798
S'9373786'
p799
ag3
ag4
ag5
aa(lp800
S'9043507'
p801
ag3
ag4
ag5
aa(lp802
S'9439881'
p803
ag3
ag4
ag5
aa(lp804
S'9536410'
p805
ag3
ag4
ag5
aa(lp806
S'9669143'
p807
ag10
ag4
ag11
aa(lp808
S'9766202'
p809
ag3
ag10
ag5
aa(lp810
S'9514956'
p811
ag10
ag4
ag11
aa(lp812
S'9161024'
p813
ag3
ag10
ag5
aa(lp814
S'9944030'
p815
ag3
ag4
ag5
aa(lp816
S'9785684'
p817
ag10
ag10
ag11
aa(lp818
S'9357301'
p819
ag10
ag10
ag11
aa(lp820
S'9542380'
p821
ag3
ag4
ag5
aa(lp822
S'9686617'
p823
ag3
ag4
ag5
aa(lp824
S'9710912'
p825
ag3
ag4
ag5
aa(lp826
S'9618967'
p827
ag3
ag4
ag5
aa(lp828
S'9249025'
p829
ag3
ag4
ag5
aa(lp830
S'9337418'
p831
ag3
ag4
ag5
aa(lp832
S'9112400'
p833
ag10
ag10
ag11
aa(lp834
S'9272194'
p835
ag3
ag4
ag5
aa(lp836
S'9925376'
p837
ag3
ag4
ag5
aa(lp838
S'9273964'
p839
ag3
ag10
ag5
aa(lp840
S'9202515'
p841
ag10
ag4
ag11
aa(lp842
S'9106808'
p843
ag10
ag4
ag11
aa(lp844
S'9340171'
p845
ag10
ag4
ag11
aa(lp846
S'9856561'
p847
ag10
ag4
ag11
aa(lp848
S'9654218'
p849
ag3
ag4
ag5
aa(lp850
S'9022703'
p851
ag10
ag4
ag11
aa(lp852
S'9762973'
p853
ag10
ag4
ag11
aa(lp854
S'9409935'
p855
ag3
ag10
ag5
aa(lp856
S'9050966'
p857
ag10
ag4
ag11
aa(lp858
S'9927360'
p859
ag10
ag10
ag11
aa(lp860
S'9617689'
p861
ag10
ag10
ag11
aa(lp862
S'9665165'
p863
ag3
ag4
ag5
aa(lp864
S'9556561'
p865
ag3
ag4
ag5
aa(lp866
S'9261557'
p867
ag10
ag4
ag11
aa(lp868
S'9057479'
p869
ag3
ag10
ag5
aa(lp870
S'9788301'
p871
ag10
ag10
ag11
aa(lp872
S'9738052'
p873
ag10
ag4
ag11
aa(lp874
S'9250129'
p875
ag3
ag10
ag5
aa(lp876
S'9120941'
p877
ag10
ag4
ag11
aa(lp878
S'9565007'
p879
ag10
ag4
ag11
aa(lp880
S'9263959'
p881
ag10
ag4
ag11
aa(lp882
S'9988820'
p883
ag3
ag10
ag5
aa(lp884
S'9897170'
p885
ag3
ag4
ag5
aa(lp886
S'9664670'
p887
ag3
ag4
ag5
aa(lp888
S'9171714'
p889
ag10
ag4
ag11
aa(lp890
S'9326434'
p891
ag3
ag4
ag5
aa(lp892
S'9619157'
p893
ag3
ag4
ag5
aa(lp894
S'9739540'
p895
ag3
ag4
ag5
aa(lp896
S'9302081'
p897
ag3
ag4
ag5
aa(lp898
S'9773633'
p899
ag3
ag4
ag5
aa(lp900
S'9712419'
p901
ag3
ag4
ag5
aa(lp902
S'9280249'
p903
ag10
ag10
ag11
aa(lp904
S'9807132'
p905
ag10
ag4
ag11
aa(lp906
S'9816968'
p907
ag10
ag4
ag11
aa(lp908
S'9234574'
p909
ag3
ag4
ag5
aa(lp910
S'9781589'
p911
ag3
ag4
ag5
aa(lp912
S'9564509'
p913
ag3
ag10
ag5
aa(lp914
S'9574138'
p915
ag3
ag4
ag5
aa(lp916
S'9781796'
p917
ag3
ag4
ag5
aa(lp918
S'9996345'
p919
ag10
ag4
ag11
aa(lp920
S'9505417'
p921
ag3
ag4
ag5
aa(lp922
S'9390263'
p923
ag10
ag4
ag11
aa(lp924
S'9893793'
p925
ag3
ag4
ag5
aa(lp926
S'9651895'
p927
ag10
ag4
ag11
aa(lp928
S'9613942'
p929
ag3
ag4
ag5
aa(lp930
S'9956822'
p931
ag10
ag4
ag11
aa(lp932
S'9082631'
p933
ag10
ag4
ag11
aa(lp934
S'9410253'
p935
ag10
ag4
ag11
aa(lp936
S'9448099'
p937
ag10
ag4
ag11
aa(lp938
S'9614227'
p939
ag10
ag4
ag11
aa(lp940
S'9175571'
p941
ag3
ag4
ag5
aa(lp942
S'9234073'
p943
ag10
ag4
ag11
aa(lp944
S'9792535'
p945
ag3
ag4
ag5
aa(lp946
S'9244001'
p947
ag3
ag4
ag5
aa(lp948
S'9566632'
p949
ag3
ag4
ag5
aa(lp950
S'9251077'
p951
ag10
ag10
ag11
aa(lp952
S'9479394'
p953
ag3
ag4
ag5
aa(lp954
S'9376146'
p955
ag10
ag4
ag11
aa(lp956
S'9449288'
p957
ag10
ag4
ag11
aa(lp958
S'9057192'
p959
ag3
ag4
ag5
aa(lp960
S'9456499'
p961
ag3
ag4
ag5
aa(lp962
S'9474248'
p963
ag3
ag4
ag5
aa(lp964
S'9480294'
p965
ag10
ag4
ag11
aa(lp966
S'9195845'
p967
ag3
ag10
ag5
aa(lp968
S'9312296'
p969
ag3
ag4
ag5
aa(lp970
S'9114285'
p971
ag3
ag4
ag5
aa(lp972
S'9762713'
p973
ag10
ag4
ag11
aa(lp974
S'9512408'
p975
ag3
ag4
ag5
aa(lp976
S'9088617'
p977
ag10
ag4
ag11
aa(lp978
S'9982251'
p979
ag10
ag4
ag11
aa(lp980
S'9754373'
p981
ag3
ag4
ag5
aa(lp982
S'9859873'
p983
ag3
ag4
ag5
aa(lp984
S'9645958'
p985
ag10
ag4
ag11
aa(lp986
S'9075418'
p987
ag10
ag4
ag11
aa(lp988
S'9149679'
p989
ag10
ag4
ag11
aa(lp990
S'9053679'
p991
ag3
ag10
ag5
aa(lp992
S'9006723'
p993
ag10
ag10
ag11
aa(lp994
S'9176992'
p995
ag3
ag4
ag5
aa(lp996
S'9273658'
p997
ag3
ag4
ag5
aa(lp998
S'9017909'
p999
ag3
ag4
ag5
aa(lp1000
S'9093622'
p1001
ag3
ag4
ag5
aa(lp1002
S'9101076'
p1003
ag10
ag10
ag11
aa(lp1004
S'9607705'
p1005
ag3
ag4
ag5
aa(lp1006
S'9996345'
p1007
ag3
ag4
ag5
aa(lp1008
S'9249780'
p1009
ag10
ag4
ag11
aa(lp1010
S'9071781'
p1011
ag3
ag10
ag5
aa(lp1012
S'9703714'
p1013
ag10
ag4
ag11
aa(lp1014
S'9362450'
p1015
ag10
ag4
ag11
aa(lp1016
S'9575435'
p1017
ag3
ag4
ag5
aa(lp1018
S'9543407'
p1019
ag10
ag4
ag11
aa(lp1020
S'9420682'
p1021
ag3
ag10
ag5
aa(lp1022
S'9810692'
p1023
ag10
ag10
ag11
aa(lp1024
S'9893482'
p1025
ag3
ag4
ag5
aa(lp1026
S'9955820'
p1027
ag3
ag4
ag5
aa(lp1028
S'9494867'
p1029
ag3
ag4
ag5
aa(lp1030
S'9346242'
p1031
ag10
ag4
ag11
aa(lp1032
S'9173462'
p1033
ag10
ag4
ag11
aa(lp1034
S'9618226'
p1035
ag3
ag4
ag5
aa(lp1036
S'9894600'
p1037
ag3
ag4
ag5
aa(lp1038
S'9949821'
p1039
ag3
ag4
ag5
aa(lp1040
S'9548815'
p1041
ag3
ag4
ag5
aa(lp1042
S'9670760'
p1043
ag10
ag4
ag11
aa(lp1044
S'9868067'
p1045
ag10
ag4
ag11
aa(lp1046
S'9889028'
p1047
ag3
ag4
ag5
aa(lp1048
S'9281202'
p1049
ag10
ag4
ag11
aa(lp1050
S'9267648'
p1051
ag3
ag4
ag5
aa(lp1052
S'9543679'
p1053
ag10
ag4
ag11
aa(lp1054
S'9906027'
p1055
ag3
ag4
ag5
aa(lp1056
S'9741448'
p1057
ag3
ag10
ag5
aa(lp1058
S'9363262'
p1059
ag3
ag4
ag5
aa(lp1060
S'9606177'
p1061
ag3
ag4
ag5
aa(lp1062
S'9460287'
p1063
ag10
ag4
ag11
aa(lp1064
S'9252019'
p1065
ag10
ag4
ag11
aa(lp1066
S'9784170'
p1067
ag3
ag4
ag5
aa(lp1068
S'9036316'
p1069
ag10
ag4
ag11
aa(lp1070
S'9247270'
p1071
ag10
ag4
ag11
aa(lp1072
S'9084244'
p1073
ag10
ag10
ag11
aa(lp1074
S'9335358'
p1075
ag3
ag4
ag5
aa(lp1076
S'9677587'
p1077
ag3
ag4
ag5
aa(lp1078
S'9133243'
p1079
ag10
ag4
ag11
aa(lp1080
S'9568938'
p1081
ag10
ag4
ag11
aa(lp1082
S'9452269'
p1083
ag3
ag4
ag5
aa(lp1084
S'9417999'
p1085
ag3
ag10
ag5
aa(lp1086
S'9599673'
p1087
ag3
ag4
ag5
aa(lp1088
S'9584176'
p1089
ag10
ag4
ag11
aa(lp1090
S'9930620'
p1091
ag10
ag4
ag11
aa(lp1092
S'9410021'
p1093
ag3
ag4
ag5
aa(lp1094
S'9815467'
p1095
ag3
ag4
ag5
aa(lp1096
S'9255353'
p1097
ag10
ag4
ag11
aa(lp1098
S'9106808'
p1099
ag3
ag4
ag5
aa(lp1100
S'9844270'
p1101
ag10
ag4
ag11
aa(lp1102
S'9008820'
p1103
ag10
ag4
ag11
aa(lp1104
S'9619405'
p1105
ag10
ag10
ag11
aa(lp1106
S'9576182'
p1107
ag10
ag10
ag11
aa(lp1108
S'9794269'
p1109
ag10
ag4
ag11
aa(lp1110
S'9143628'
p1111
ag10
ag10
ag11
aa(lp1112
S'9961728'
p1113
ag3
ag10
ag5
aa(lp1114
S'9372030'
p1115
ag3
ag4
ag5
aa(lp1116
S'9013798'
p1117
ag10
ag4
ag11
aa(lp1118
S'9363662'
p1119
ag10
ag4
ag11
aa(lp1120
S'9495409'
p1121
ag10
ag4
ag11
aa(lp1122
S'9266787'
p1123
ag3
ag4
ag5
aa(lp1124
S'9643222'
p1125
ag10
ag4
ag11
aa(lp1126
S'9452359'
p1127
ag10
ag4
ag11
aa(lp1128
S'9452479'
p1129
ag3
ag4
ag5
aa(lp1130
S'9564520'
p1131
ag10
ag4
ag11
aa(lp1132
S'9848855'
p1133
ag3
ag4
ag5
aa(lp1134
S'9583127'
p1135
ag3
ag4
ag5
aa(lp1136
S'9207798'
p1137
ag10
ag4
ag11
aa(lp1138
S'9027189'
p1139
ag3
ag4
ag5
aa(lp1140
S'9419364'
p1141
ag3
ag4
ag5
aa(lp1142
S'9916249'
p1143
ag3
ag4
ag5
aa(lp1144
S'9639581'
p1145
ag10
ag4
ag11
aa(lp1146
S'9775009'
p1147
ag3
ag4
ag5
aa(lp1148
S'9978813'
p1149
ag10
ag4
ag11
aa(lp1150
S'9288911'
p1151
ag3
ag4
ag5
aa(lp1152
S'9554395'
p1153
ag10
ag4
ag11
aa(lp1154
S'9260058'
p1155
ag10
ag4
ag11
aa(lp1156
S'9914231'
p1157
ag10
ag4
ag11
aa(lp1158
S'9409941'
p1159
ag10
ag10
ag11
aa(lp1160
S'9684366'
p1161
ag10
ag4
ag11
aa(lp1162
S'9282330'
p1163
ag3
ag4
ag5
aa(lp1164
S'9902662'
p1165
ag3
ag4
ag5
aa(lp1166
S'9220921'
p1167
ag10
ag4
ag11
aa(lp1168
S'9656390'
p1169
ag10
ag10
ag11
aa(lp1170
S'9710912'
p1171
ag10
ag4
ag11
aa(lp1172
S'9507296'
p1173
ag3
ag4
ag5
aa(lp1174
S'9728546'
p1175
ag3
ag4
ag5
aa(lp1176
S'9754907'
p1177
ag3
ag4
ag5
aa(lp1178
S'9318127'
p1179
ag10
ag4
ag11
aa(lp1180
S'9683366'
p1181
ag10
ag4
ag11
aa(lp1182
S'9468292'
p1183
ag3
ag10
ag5
aa(lp1184
S'9143312'
p1185
ag3
ag4
ag5
aa(lp1186
S'9958220'
p1187
ag3
ag10
ag5
aa(lp1188
S'9003126'
p1189
ag3
ag4
ag5
aa(lp1190
S'9411066'
p1191
ag10
ag4
ag11
aa(lp1192
S'9655910'
p1193
ag3
ag4
ag5
aa(lp1194
S'9968950'
p1195
ag3
ag4
ag5
aa(lp1196
S'9157304'
p1197
ag10
ag4
ag11
aa(lp1198
S'9476354'
p1199
ag10
ag4
ag11
aa(lp1200
S'9462532'
p1201
ag3
ag4
ag5
aa(lp1202
S'9590267'
p1203
ag10
ag4
ag11
aa(lp1204
S'9464766'
p1205
ag10
ag10
ag11
aa(lp1206
S'9850534'
p1207
ag3
ag4
ag5
aa(lp1208
S'9199070'
p1209
ag10
ag4
ag11
aa(lp1210
S'9085393'
p1211
ag10
ag4
ag11
aa(lp1212
S'9138467'
p1213
ag10
ag4
ag11
aa(lp1214
S'9066677'
p1215
ag3
ag10
ag5
aa(lp1216
S'9548401'
p1217
ag10
ag10
ag11
aa(lp1218
S'9469155'
p1219
ag10
ag4
ag11
aa(lp1220
S'9106688'
p1221
ag10
ag4
ag11
aa(lp1222
S'9435273'
p1223
ag3
ag4
ag5
aa(lp1224
S'9261513'
p1225
ag3
ag10
ag5
aa(lp1226
S'9913590'
p1227
ag3
ag4
ag5
aa(lp1228
S'9348431'
p1229
ag10
ag4
ag11
aa(lp1230
S'9135838'
p1231
ag3
ag4
ag5
aa(lp1232
S'9099961'
p1233
ag3
ag4
ag5
aa(lp1234
S'9400975'
p1235
ag10
ag4
ag11
aa(lp1236
S'9016403'
p1237
ag3
ag4
ag5
aa(lp1238
S'9167018'
p1239
ag10
ag4
ag11
aa(lp1240
S'9402978'
p1241
ag10
ag4
ag11
aa(lp1242
S'9503723'
p1243
ag10
ag4
ag11
aa(lp1244
S'9747379'
p1245
ag10
ag4
ag11
aa(lp1246
S'9163391'
p1247
ag3
ag4
ag5
aa(lp1248
S'9314056'
p1249
ag3
ag4
ag5
aa(lp1250
S'9011641'
p1251
ag10
ag4
ag11
aa(lp1252
S'9608695'
p1253
ag3
ag4
ag5
aa(lp1254
S'9606490'
p1255
ag10
ag4
ag11
aa(lp1256
S'9537961'
p1257
ag3
ag4
ag5
aa(lp1258
S'9685830'
p1259
ag3
ag4
ag5
aa(lp1260
S'9184108'
p1261
ag3
ag4
ag5
aa(lp1262
S'9910757'
p1263
ag3
ag4
ag5
aa(lp1264
S'9670897'
p1265
ag10
ag4
ag11
aa(lp1266
S'9878765'
p1267
ag10
ag4
ag11
aa(lp1268
S'9091623'
p1269
ag3
ag4
ag5
aa(lp1270
S'9510301'
p1271
ag3
ag4
ag5
aa(lp1272
S'9477175'
p1273
ag3
ag4
ag5
aa(lp1274
S'9121030'
p1275
ag10
ag4
ag11
aa(lp1276
S'9254514'
p1277
ag10
ag4
ag11
aa(lp1278
S'9200957'
p1279
ag3
ag4
ag5
aa(lp1280
S'9450291'
p1281
ag10
ag4
ag11
aa(lp1282
S'9973322'
p1283
ag10
ag4
ag11
aa(lp1284
S'9973199'
p1285
ag3
ag10
ag5
aa(lp1286
S'9458286'
p1287
ag3
ag4
ag5
aa(lp1288
S'9162458'
p1289
ag10
ag4
ag11
aa(lp1290
S'9793882'
p1291
ag3
ag4
ag5
aa(lp1292
S'9049447'
p1293
ag3
ag10
ag5
aa(lp1294
S'9326076'
p1295
ag3
ag4
ag5
aa(lp1296
S'9245760'
p1297
ag3
ag4
ag5
aa(lp1298
S'9896710'
p1299
ag10
ag4
ag11
aa(lp1300
S'9474270'
p1301
ag3
ag4
ag5
aa(lp1302
S'9872010'
p1303
ag10
ag4
ag11
aa(lp1304
S'9533617'
p1305
ag3
ag4
ag5
aa(lp1306
S'9770617'
p1307
ag3
ag4
ag5
aa(lp1308
S'9666971'
p1309
ag10
ag4
ag11
aa(lp1310
S'9433383'
p1311
ag3
ag4
ag5
aa(lp1312
S'9778272'
p1313
ag10
ag4
ag11
aa(lp1314
S'9218438'
p1315
ag3
ag10
ag5
aa(lp1316
S'9860552'
p1317
ag10
ag10
ag11
aa(lp1318
S'9655142'
p1319
ag3
ag4
ag5
aa(lp1320
S'9528258'
p1321
ag10
ag4
ag11
aa(lp1322
S'9800285'
p1323
ag3
ag10
ag5
aa(lp1324
S'9318808'
p1325
ag3
ag4
ag5
aa(lp1326
S'9708416'
p1327
ag3
ag4
ag5
aa(lp1328
S'9896668'
p1329
ag3
ag10
ag5
aa(lp1330
S'9133464'
p1331
ag10
ag4
ag11
aa(lp1332
S'9478343'
p1333
ag3
ag4
ag5
aa(lp1334
S'9739711'
p1335
ag3
ag10
ag5
aa(lp1336
S'9417349'
p1337
ag10
ag4
ag11
aa(lp1338
S'9292027'
p1339
ag3
ag4
ag5
aa(lp1340
S'9691423'
p1341
ag10
ag4
ag11
aa(lp1342
S'9504056'
p1343
ag10
ag10
ag11
aa(lp1344
S'9093584'
p1345
ag10
ag4
ag11
aa(lp1346
S'9798131'
p1347
ag3
ag4
ag5
aa(lp1348
S'9618669'
p1349
ag10
ag4
ag11
aa(lp1350
S'9382139'
p1351
ag3
ag4
ag5
aa(lp1352
S'9811200'
p1353
ag3
ag4
ag5
aa(lp1354
S'9125977'
p1355
ag10
ag4
ag11
aa(lp1356
S'9191054'
p1357
ag10
ag4
ag11
aa(lp1358
S'9655910'
p1359
ag10
ag4
ag11
aa(lp1360
S'9118523'
p1361
ag3
ag10
ag5
aa(lp1362
S'9261557'
p1363
ag3
ag4
ag5
aa(lp1364
S'9065820'
p1365
ag10
ag4
ag11
aa(lp1366
S'9222048'
p1367
ag10
ag4
ag11
aa(lp1368
S'9349395'
p1369
ag10
ag4
ag11
aa(lp1370
S'9631230'
p1371
ag3
ag4
ag5
aa(lp1372
S'9862725'
p1373
ag10
ag4
ag11
aa(lp1374
S'9650570'
p1375
ag10
ag4
ag11
aa(lp1376
S'9713986'
p1377
ag3
ag4
ag5
aa(lp1378
S'9594551'
p1379
ag10
ag4
ag11
aa(lp1380
S'9609732'
p1381
ag3
ag10
ag5
aa(lp1382
S'9873823'
p1383
ag10
ag4
ag11
aa(lp1384
S'9203454'
p1385
ag10
ag4
ag11
aa(lp1386
S'9729986'
p1387
ag3
ag4
ag5
aa(lp1388
S'9544159'
p1389
ag3
ag4
ag5
aa(lp1390
S'9254920'
p1391
ag10
ag4
ag11
aa(lp1392
S'9070290'
p1393
ag3
ag4
ag5
aa(lp1394
S'9156526'
p1395
ag3
ag4
ag5
aa(lp1396
S'9431322'
p1397
ag3
ag4
ag5
aa(lp1398
S'9931370'
p1399
ag3
ag4
ag5
aa(lp1400
S'9539368'
p1401
ag10
ag10
ag11
aa(lp1402
S'9209533'
p1403
ag10
ag4
ag11
aa(lp1404
S'9465321'
p1405
ag3
ag4
ag5
aa(lp1406
S'9690331'
p1407
ag10
ag4
ag11
aa(lp1408
S'9072758'
p1409
ag3
ag4
ag5
aa(lp1410
S'9014883'
p1411
ag10
ag4
ag11
aa(lp1412
S'9180105'
p1413
ag10
ag4
ag11
aa(lp1414
S'9203057'
p1415
ag10
ag4
ag11
aa(lp1416
S'9362450'
p1417
ag3
ag4
ag5
aa(lp1418
S'9696350'
p1419
ag10
ag10
ag11
aa(lp1420
S'9517833'
p1421
ag10
ag4
ag11
aa(lp1422
S'9282772'
p1423
ag3
ag4
ag5
aa(lp1424
S'9110292'
p1425
ag10
ag4
ag11
aa(lp1426
S'9056978'
p1427
ag10
ag10
ag11
aa(lp1428
S'9369110'
p1429
ag10
ag4
ag11
aa(lp1430
S'9137709'
p1431
ag3
ag4
ag5
aa(lp1432
S'9311411'
p1433
ag10
ag4
ag11
aa(lp1434
S'9884303'
p1435
ag10
ag10
ag11
aa(lp1436
S'9666440'
p1437
ag3
ag4
ag5
aa(lp1438
S'9227993'
p1439
ag10
ag4
ag11
aa(lp1440
S'9153509'
p1441
ag10
ag4
ag11
aa(lp1442
S'9376146'
p1443
ag3
ag4
ag5
aa(lp1444
S'9422393'
p1445
ag3
ag4
ag5
aa(lp1446
S'9567621'
p1447
ag10
ag10
ag11
aa(lp1448
S'9042459'
p1449
ag10
ag4
ag11
aa(lp1450
S'9213372'
p1451
ag10
ag4
ag11
aa(lp1452
S'9312487'
p1453
ag10
ag4
ag11
aa(lp1454
S'9373076'
p1455
ag3
ag4
ag5
aa(lp1456
S'9306719'
p1457
ag3
ag4
ag5
aa(lp1458
S'9915677'
p1459
ag3
ag4
ag5
aa(lp1460
S'9014209'
p1461
ag3
ag10
ag5
aa(lp1462
S'9739820'
p1463
ag3
ag10
ag5
aa(lp1464
S'9765966'
p1465
ag10
ag4
ag11
aa(lp1466
S'9143628'
p1467
ag3
ag4
ag5
aa(lp1468
S'9302341'
p1469
ag10
ag4
ag11
aa(lp1470
S'9273266'
p1471
ag10
ag4
ag11
aa(lp1472
S'9346709'
p1473
ag3
ag4
ag5
aa(lp1474
S'9390312'
p1475
ag3
ag10
ag5
aa(lp1476
S'9573716'
p1477
ag3
ag4
ag5
aa(lp1478
S'9837324'
p1479
ag3
ag4
ag5
aa(lp1480
S'9176441'
p1481
ag10
ag4
ag11
aa(lp1482
S'9827858'
p1483
ag10
ag4
ag11
aa(lp1484
S'9407027'
p1485
ag10
ag4
ag11
aa(lp1486
S'9255053'
p1487
ag3
ag4
ag5
aa(lp1488
S'9700163'
p1489
ag10
ag4
ag11
aa(lp1490
S'9860739'
p1491
ag10
ag4
ag11
aa(lp1492
S'9797299'
p1493
ag10
ag4
ag11
aa(lp1494
S'9848766'
p1495
ag10
ag4
ag11
aa(lp1496
S'9284909'
p1497
ag3
ag4
ag5
aa(lp1498
S'9412123'
p1499
ag3
ag10
ag5
aa(lp1500
S'9345249'
p1501
ag3
ag10
ag5
aa(lp1502
S'9742066'
p1503
ag10
ag4
ag11
aa(lp1504
S'9661713'
p1505
ag10
ag4
ag11
aa(lp1506
S'9290819'
p1507
ag3
ag4
ag5
aa(lp1508
S'9147692'
p1509
ag10
ag4
ag11
aa(lp1510
S'9923837'
p1511
ag10
ag4
ag11
aa(lp1512
S'9281187'
p1513
ag10
ag10
ag11
aa(lp1514
S'9926321'
p1515
ag3
ag4
ag5
aa(lp1516
S'9717730'
p1517
ag3
ag4
ag5
aa(lp1518
S'9088142'
p1519
ag3
ag10
ag5
aa(lp1520
S'9941446'
p1521
ag10
ag4
ag11
aa(lp1522
S'9301641'
p1523
ag3
ag10
ag5
aa(lp1524
S'9906027'
p1525
ag10
ag4
ag11
aa(lp1526
S'9004184'
p1527
ag3
ag4
ag5
aa(lp1528
S'9384145'
p1529
ag10
ag4
ag11
aa(lp1530
S'9608137'
p1531
ag3
ag4
ag5
aa(lp1532
S'9841815'
p1533
ag3
ag10
ag5
aa(lp1534
S'9596422'
p1535
ag10
ag4
ag11
aa(lp1536
S'9437009'
p1537
ag3
ag10
ag5
aa(lp1538
S'9796299'
p1539
ag3
ag4
ag5
aa(lp1540
S'9027281'
p1541
ag3
ag4
ag5
aa(lp1542
S'9470299'
p1543
ag3
ag4
ag5
aa(lp1544
S'9869788'
p1545
ag3
ag4
ag5
aa(lp1546
S'9990192'
p1547
ag3
ag4
ag5
aa(lp1548
S'9819149'
p1549
ag3
ag4
ag5
aa(lp1550
S'9621393'
p1551
ag10
ag4
ag11
aa(lp1552
S'9785185'
p1553
ag3
ag4
ag5
aa(lp1554
S'9307098'
p1555
ag3
ag4
ag5
aa(lp1556
S'9911788'
p1557
ag3
ag4
ag5
aa(lp1558
S'9566940'
p1559
ag3
ag4
ag5
aa(lp1560
S'9948016'
p1561
ag3
ag10
ag5
aa(lp1562
S'9442526'
p1563
ag10
ag4
ag11
aa(lp1564
S'9351263'
p1565
ag3
ag4
ag5
aa(lp1566
S'9155449'
p1567
ag3
ag4
ag5
aa(lp1568
S'9476561'
p1569
ag3
ag4
ag5
aa(lp1570
S'9253423'
p1571
ag3
ag10
ag5
aa(lp1572
S'9535384'
p1573
ag3
ag4
ag5
aa(lp1574
S'9982698'
p1575
ag3
ag4
ag5
aa(lp1576
S'9119806'
p1577
ag3
ag4
ag5
aa(lp1578
S'9070923'
p1579
ag10
ag4
ag11
aa(lp1580
S'9376210'
p1581
ag3
ag4
ag5
aa(lp1582
S'9526875'
p1583
ag10
ag4
ag11
aa(lp1584
S'9411598'
p1585
ag3
ag4
ag5
aa(lp1586
S'9878804'
p1587
ag10
ag10
ag11
aa(lp1588
S'9709164'
p1589
ag3
ag4
ag5
aa(lp1590
S'9280043'
p1591
ag3
ag4
ag5
aa(lp1592
S'9024409'
p1593
ag10
ag4
ag11
aa(lp1594
S'9005132'
p1595
ag10
ag4
ag11
aa(lp1596
S'9253225'
p1597
ag3
ag4
ag5
aa(lp1598
S'9490756'
p1599
ag10
ag4
ag11
aa(lp1600
S'9168012'
p1601
ag3
ag4
ag5
aa(lp1602
S'9378389'
p1603
ag10
ag4
ag11
aa(lp1604
S'9102440'
p1605
ag10
ag4
ag11
aa(lp1606
S'9615630'
p1607
ag10
ag4
ag11
aa(lp1608
S'9220921'
p1609
ag3
ag4
ag5
aa(lp1610
S'9967294'
p1611
ag10
ag4
ag11
aa(lp1612
S'9706983'
p1613
ag3
ag4
ag5
aa(lp1614
S'9753580'
p1615
ag3
ag4
ag5
aa(lp1616
S'9552043'
p1617
ag3
ag4
ag5
aa(lp1618
S'9889762'
p1619
ag10
ag10
ag11
aa(lp1620
S'9440307'
p1621
ag10
ag4
ag11
aa(lp1622
S'9981798'
p1623
ag10
ag10
ag11
aa(lp1624
S'9907800'
p1625
ag3
ag10
ag5
aa(lp1626
S'9351436'
p1627
ag3
ag4
ag5
aa(lp1628
S'9793845'
p1629
ag10
ag4
ag11
aa(lp1630
S'9668982'
p1631
ag3
ag4
ag5
aa(lp1632
S'9654072'
p1633
ag3
ag4
ag5
aa(lp1634
S'9747094'
p1635
ag10
ag4
ag11
aa(lp1636
S'9011641'
p1637
ag3
ag4
ag5
aa(lp1638
S'9278404'
p1639
ag3
ag4
ag5
aa(lp1640
S'9953820'
p1641
ag3
ag4
ag5
aa(lp1642
S'9321373'
p1643
ag3
ag4
ag5
aa(lp1644
S'9523947'
p1645
ag3
ag10
ag5
aa(lp1646
S'9789095'
p1647
ag3
ag10
ag5
aa(lp1648
S'9570722'
p1649
ag10
ag4
ag11
aa(lp1650
S'9973322'
p1651
ag3
ag4
ag5
aa(lp1652
S'9304351'
p1653
ag3
ag4
ag5
aa(lp1654
S'9812166'
p1655
ag3
ag4
ag5
aa(lp1656
S'9375300'
p1657
ag10
ag4
ag11
aa(lp1658
S'9638666'
p1659
ag10
ag4
ag11
aa(lp1660
S'9798629'
p1661
ag3
ag4
ag5
aa(lp1662
S'9170011'
p1663
ag10
ag4
ag11
aa(lp1664
S'9478184'
p1665
ag10
ag4
ag11
aa(lp1666
S'9652894'
p1667
ag10
ag4
ag11
aa(lp1668
S'9519044'
p1669
ag3
ag10
ag5
aa(lp1670
S'9396994'
p1671
ag3
ag10
ag5
aa(lp1672
S'9583746'
p1673
ag10
ag4
ag11
aa(lp1674
S'9510900'
p1675
ag3
ag4
ag5
aa(lp1676
S'9719391'
p1677
ag10
ag4
ag11
aa(lp1678
S'9445104'
p1679
ag3
ag4
ag5
aa(lp1680
S'9530267'
p1681
ag3
ag4
ag5
aa(lp1682
S'9393208'
p1683
ag3
ag4
ag5
aa(lp1684
S'9933955'
p1685
ag3
ag4
ag5
aa(lp1686
S'9038683'
p1687
ag3
ag4
ag5
aa(lp1688
S'9463778'
p1689
ag10
ag4
ag11
aa(lp1690
S'9226589'
p1691
ag3
ag10
ag5
aa(lp1692
S'9448099'
p1693
ag3
ag4
ag5
aa(lp1694
S'9868067'
p1695
ag3
ag4
ag5
aa(lp1696
S'9763898'
p1697
ag3
ag4
ag5
aa(lp1698
S'9580736'
p1699
ag3
ag4
ag5
aa(lp1700
S'9193589'
p1701
ag10
ag4
ag11
aa(lp1702
S'9085892'
p1703
ag3
ag4
ag5
aa(lp1704
S'9935439'
p1705
ag10
ag4
ag11
aa(lp1706
S'9850237'
p1707
ag3
ag4
ag5
aa(lp1708
S'9888515'
p1709
ag10
ag10
ag11
aa(lp1710
S'9681696'
p1711
ag3
ag4
ag5
aa(lp1712
S'9030925'
p1713
ag10
ag4
ag11
aa(lp1714
S'9224012'
p1715
ag10
ag4
ag11
aa(lp1716
S'9393975'
p1717
ag10
ag4
ag11
aa(lp1718
S'9444295'
p1719
ag3
ag4
ag5
aa(lp1720
S'9471287'
p1721
ag10
ag4
ag11
aa(lp1722
S'9258051'
p1723
ag3
ag4
ag5
aa(lp1724
S'9025257'
p1725
ag10
ag10
ag11
aa(lp1726
S'9565710'
p1727
ag10
ag4
ag11
aa(lp1728
S'9070787'
p1729
ag3
ag4
ag5
aa(lp1730
S'9860637'
p1731
ag10
ag4
ag11
aa(lp1732
S'9092247'
p1733
ag3
ag4
ag5
aa(lp1734
S'9062161'
p1735
ag3
ag4
ag5
aa(lp1736
S'9656696'
p1737
ag3
ag4
ag5
aa(lp1738
S'9363408'
p1739
ag10
ag4
ag11
aa(lp1740
S'9317134'
p1741
ag3
ag4
ag5
aa(lp1742
S'9645608'
p1743
ag10
ag4
ag11
aa(lp1744
S'9908315'
p1745
ag3
ag4
ag5
aa(lp1746
S'9025933'
p1747
ag3
ag4
ag5
aa(lp1748
S'9293216'
p1749
ag10
ag4
ag11
aa(lp1750
S'9772627'
p1751
ag3
ag4
ag5
aa(lp1752
S'9512947'
p1753
ag3
ag4
ag5
aa(lp1754
S'9387094'
p1755
ag3
ag10
ag5
aa(lp1756
S'9153792'
p1757
ag10
ag4
ag11
aa(lp1758
S'9935307'
p1759
ag10
ag4
ag11
aa(lp1760
S'9763679'
p1761
ag3
ag4
ag5
aa(lp1762
S'9262149'
p1763
ag3
ag10
ag5
aa(lp1764
S'9916496'
p1765
ag10
ag4
ag11
aa(lp1766
S'9234485'
p1767
ag10
ag4
ag11
aa(lp1768
S'9709990'
p1769
ag10
ag4
ag11
aa(lp1770
S'9265023'
p1771
ag10
ag4
ag11
aa(lp1772
S'9613237'
p1773
ag10
ag4
ag11
aa(lp1774
S'9003380'
p1775
ag3
ag4
ag5
aa(lp1776
S'9718951'
p1777
ag3
ag4
ag5
aa(lp1778
S'9131911'
p1779
ag10
ag10
ag11
aa(lp1780
S'9671436'
p1781
ag10
ag4
ag11
aa(lp1782
S'9459116'
p1783
ag3
ag4
ag5
aa(lp1784
S'9954184'
p1785
ag3
ag4
ag5
aa(lp1786
S'9813851'
p1787
ag10
ag4
ag11
aa(lp1788
S'9981815'
p1789
ag10
ag4
ag11
aa(lp1790
S'9657071'
p1791
ag3
ag4
ag5
aa(lp1792
S'9435145'
p1793
ag3
ag4
ag5
aa(lp1794
S'9023407'
p1795
ag10
ag4
ag11
aa(lp1796
S'9368408'
p1797
ag3
ag4
ag5
aa(lp1798
S'9252629'
p1799
ag3
ag10
ag5
aa(lp1800
S'9882788'
p1801
ag3
ag4
ag5
aa(lp1802
S'9909311'
p1803
ag3
ag4
ag5
aa(lp1804
S'9242925'
p1805
ag10
ag4
ag11
aa(lp1806
S'9432389'
p1807
ag3
ag10
ag5
aa(lp1808
S'9747589'
p1809
ag3
ag4
ag5
aa(lp1810
S'9442416'
p1811
ag10
ag4
ag11
aa(lp1812
S'9624202'
p1813
ag10
ag4
ag11
aa(lp1814
S'9604158'
p1815
ag10
ag4
ag11
aa(lp1816
S'9825783'
p1817
ag10
ag4
ag11
aa(lp1818
S'9600713'
p1819
ag3
ag4
ag5
aa(lp1820
S'9090290'
p1821
ag10
ag4
ag11
aa(lp1822
S'9211751'
p1823
ag10
ag4
ag11
aa(lp1824
S'9067323'
p1825
ag3
ag10
ag5
aa(lp1826
S'9695317'
p1827
ag3
ag4
ag5
aa(lp1828
S'9499370'
p1829
ag3
ag4
ag5
aa(lp1830
S'9745368'
p1831
ag3
ag4
ag5
aa(lp1832
S'9819149'
p1833
ag10
ag4
ag11
aa(lp1834
S'9165552'
p1835
ag3
ag4
ag5
aa(lp1836
S'9921260'
p1837
ag3
ag4
ag5
aa(lp1838
S'9944714'
p1839
ag3
ag4
ag5
aa(lp1840
S'9035647'
p1841
ag10
ag10
ag11
aa(lp1842
S'9927318'
p1843
ag10
ag10
ag11
aa(lp1844
S'9578253'
p1845
ag10
ag4
ag11
aa(lp1846
S'9220603'
p1847
ag10
ag4
ag11
aa(lp1848
S'9044788'
p1849
ag10
ag10
ag11
aa(lp1850
S'9810742'
p1851
ag10
ag4
ag11
aa(lp1852
S'9304726'
p1853
ag3
ag4
ag5
aa(lp1854
S'9440005'
p1855
ag3
ag4
ag5
aa(lp1856
S'9289520'
p1857
ag3
ag4
ag5
aa(lp1858
S'9597680'
p1859
ag10
ag4
ag11
aa(lp1860
S'9908908'
p1861
ag10
ag4
ag11
aa(lp1862
S'9160401'
p1863
ag10
ag4
ag11
aa(lp1864
S'9907090'
p1865
ag3
ag4
ag5
aa(lp1866
S'9766939'
p1867
ag10
ag4
ag11
aa(lp1868
S'9682706'
p1869
ag10
ag4
ag11
aa(lp1870
S'9095389'
p1871
ag3
ag4
ag5
aa(lp1872
S'9473335'
p1873
ag3
ag4
ag5
aa(lp1874
S'9535610'
p1875
ag10
ag4
ag11
aa(lp1876
S'9393127'
p1877
ag3
ag10
ag5
aa(lp1878
S'9331053'
p1879
ag10
ag10
ag11
aa(lp1880
S'9141244'
p1881
ag3
ag4
ag5
aa(lp1882
S'9354236'
p1883
ag3
ag4
ag5
aa(lp1884
S'9213438'
p1885
ag10
ag4
ag11
aa(lp1886
S'9543020'
p1887
ag10
ag10
ag11
aa(lp1888
S'9667180'
p1889
ag3
ag4
ag5
aa(lp1890
S'9701362'
p1891
ag10
ag4
ag11
aa(lp1892
S'9798668'
p1893
ag10
ag4
ag11
aa(lp1894
S'9112400'
p1895
ag3
ag4
ag5
aa(lp1896
S'9538599'
p1897
ag3
ag4
ag5
aa(lp1898
S'9012435'
p1899
ag10
ag4
ag11
aa(lp1900
S'9220603'
p1901
ag3
ag4
ag5
aa(lp1902
S'9492880'
p1903
ag10
ag4
ag11
aa(lp1904
S'9700908'
p1905
ag3
ag4
ag5
aa(lp1906
S'9601155'
p1907
ag10
ag4
ag11
aa(lp1908
S'9463233'
p1909
ag3
ag4
ag5
aa(lp1910
S'9355228'
p1911
ag10
ag4
ag11
aa(lp1912
S'9402055'
p1913
ag10
ag4
ag11
aa(lp1914
S'9974327'
p1915
ag10
ag4
ag11
aa(lp1916
S'9695379'
p1917
ag10
ag4
ag11
aa(lp1918
S'9970801'
p1919
ag10
ag4
ag11
aa(lp1920
S'9458237'
p1921
ag10
ag4
ag11
aa(lp1922
S'9858252'
p1923
ag3
ag4
ag5
aa(lp1924
S'9411979'
p1925
ag3
ag10
ag5
aa(lp1926
S'9778477'
p1927
ag10
ag4
ag11
aa(lp1928
S'9814464'
p1929
ag3
ag4
ag5
aa(lp1930
S'9861303'
p1931
ag10
ag4
ag11
aa(lp1932
S'9411598'
p1933
ag10
ag4
ag11
aa(lp1934
S'9157304'
p1935
ag3
ag4
ag5
aa(lp1936
S'9075880'
p1937
ag10
ag4
ag11
aa(lp1938
S'9564280'
p1939
ag3
ag10
ag5
aa(lp1940
S'9400081'
p1941
ag10
ag4
ag11
aa(lp1942
S'9152525'
p1943
ag10
ag4
ag11
aa(lp1944
S'9461885'
p1945
ag10
ag4
ag11
aa(lp1946
S'9477362'
p1947
ag3
ag4
ag5
aa(lp1948
S'9340468'
p1949
ag10
ag4
ag11
aa(lp1950
S'9436383'
p1951
ag10
ag4
ag11
aa(lp1952
S'9099785'
p1953
ag10
ag4
ag11
aa(lp1954
S'9028904'
p1955
ag3
ag10
ag5
aa(lp1956
S'9312487'
p1957
ag3
ag4
ag5
aa(lp1958
S'9389941'
p1959
ag10
ag10
ag11
aa(lp1960
S'9407587'
p1961
ag3
ag4
ag5
aa(lp1962
S'9816968'
p1963
ag3
ag4
ag5
aa(lp1964
S'9997869'
p1965
ag3
ag4
ag5
aa(lp1966
S'9007904'
p1967
ag10
ag4
ag11
aa(lp1968
S'9827858'
p1969
ag3
ag4
ag5
aa(lp1970
S'9728442'
p1971
ag10
ag10
ag11
aa(lp1972
S'9302536'
p1973
ag3
ag4
ag5
aa(lp1974
S'9636064'
p1975
ag3
ag4
ag5
aa(lp1976
S'9921353'
p1977
ag10
ag4
ag11
aa(lp1978
S'9488401'
p1979
ag10
ag4
ag11
aa(lp1980
S'9555914'
p1981
ag10
ag4
ag11
aa(lp1982
S'9327829'
p1983
ag3
ag4
ag5
aa(lp1984
S'9902235'
p1985
ag3
ag4
ag5
aa(lp1986
S'9425661'
p1987
ag10
ag4
ag11
aa(lp1988
S'9417544'
p1989
ag10
ag4
ag11
aa(lp1990
S'9584690'
p1991
ag10
ag10
ag11
aa(lp1992
S'9589006'
p1993
ag10
ag4
ag11
aa(lp1994
S'9092247'
p1995
ag10
ag4
ag11
aa(lp1996
S'9088345'
p1997
ag10
ag4
ag11
aa(lp1998
S'9649566'
p1999
ag10
ag4
ag11
aa(lp2000
S'9823388'
p2001
ag10
ag4
ag11
aa(lp2002
S'9062483'
p2003
ag10
ag10
ag11
aa(lp2004
S'9150875'
p2005
ag10
ag4
ag11
aa(lp2006
S'9984485'
p2007
ag3
ag10
ag5
aa(lp2008
S'9819744'
p2009
ag10
ag10
ag11
aa(lp2010
S'9544698'
p2011
ag10
ag10
ag11
aa(lp2012
S'9218916'
p2013
ag10
ag10
ag11
aa(lp2014
S'9057192'
p2015
ag10
ag4
ag11
aa(lp2016
S'9644892'
p2017
ag3
ag4
ag5
aa(lp2018
S'9340468'
p2019
ag3
ag4
ag5
aa(lp2020
S'9291206'
p2021
ag3
ag4
ag5
aa(lp2022
S'9566495'
p2023
ag3
ag10
ag5
aa(lp2024
S'9349241'
p2025
ag10
ag4
ag11
aa(lp2026
S'9776644'
p2027
ag3
ag4
ag5
aa(lp2028
S'9369690'
p2029
ag3
ag4
ag5
aa(lp2030
S'9023784'
p2031
ag3
ag4
ag5
aa(lp2032
S'9895178'
p2033
ag3
ag4
ag5
aa(lp2034
S'9435315'
p2035
ag3
ag4
ag5
aa(lp2036
S'9734179'
p2037
ag3
ag4
ag5
aa(lp2038
S'9646196'
p2039
ag10
ag4
ag11
aa(lp2040
S'9416851'
p2041
ag10
ag4
ag11
aa(lp2042
S'9099363'
p2043
ag10
ag10
ag11
aa(lp2044
S'9316495'
p2045
ag3
ag4
ag5
aa(lp2046
S'9834325'
p2047
ag10
ag4
ag11
aa(lp2048
S'9003126'
p2049
ag10
ag4
ag11
aa(lp2050
S'9893729'
p2051
ag10
ag4
ag11
aa(lp2052
S'9259523'
p2053
ag10
ag4
ag11
aa(lp2054
S'9515853'
p2055
ag3
ag4
ag5
aa(lp2056
S'9956295'
p2057
ag10
ag4
ag11
aa(lp2058
S'9012435'
p2059
ag3
ag4
ag5
aa(lp2060
S'9024900'
p2061
ag3
ag4
ag5
aa(lp2062
S'9531421'
p2063
ag3
ag4
ag5
aa(lp2064
S'9358131'
p2065
ag3
ag4
ag5
aa(lp2066
S'9308271'
p2067
ag10
ag4
ag11
aa(lp2068
S'9847829'
p2069
ag3
ag10
ag5
aa(lp2070
S'9766449'
p2071
ag3
ag4
ag5
aa(lp2072
S'9168012'
p2073
ag10
ag4
ag11
aa(lp2074
S'9090860'
p2075
ag10
ag4
ag11
aa(lp2076
S'9073948'
p2077
ag10
ag4
ag11
aa(lp2078
S'9670760'
p2079
ag3
ag4
ag5
aa(lp2080
S'9541406'
p2081
ag10
ag4
ag11
aa(lp2082
S'9322375'
p2083
ag3
ag4
ag5
aa(lp2084
S'9147692'
p2085
ag3
ag4
ag5
aa(lp2086
S'9022408'
p2087
ag3
ag4
ag5
aa(lp2088
S'9563400'
p2089
ag10
ag4
ag11
aa(lp2090
S'9766449'
p2091
ag10
ag4
ag11
aa(lp2092
S'9114285'
p2093
ag10
ag4
ag11
aa(lp2094
S'9563885'
p2095
ag3
ag4
ag5
aa(lp2096
S'9490372'
p2097
ag3
ag10
ag5
aa(lp2098
S'9669752'
p2099
ag10
ag4
ag11
aa(lp2100
S'9470299'
p2101
ag10
ag4
ag11
aa(lp2102
S'9465779'
p2103
ag3
ag4
ag5
aa(lp2104
S'9713153'
p2105
ag3
ag4
ag5
aa(lp2106
S'9152569'
p2107
ag3
ag4
ag5
aa(lp2108
S'9909758'
p2109
ag3
ag4
ag5
aa(lp2110
S'9108461'
p2111
ag10
ag4
ag11
aa(lp2112
S'9919047'
p2113
ag3
ag4
ag5
aa(lp2114
S'9177091'
p2115
ag3
ag4
ag5
aa(lp2116
S'9039972'
p2117
ag10
ag4
ag11
aa(lp2118
S'9240515'
p2119
ag10
ag4
ag11
aa(lp2120
S'9976207'
p2121
ag3
ag10
ag5
aa(lp2122
S'9649602'
p2123
ag10
ag10
ag11
aa(lp2124
S'9877224'
p2125
ag10
ag4
ag11
aa(lp2126
S'9703327'
p2127
ag3
ag4
ag5
aa(lp2128
S'9775475'
p2129
ag10
ag4
ag11
aa(lp2130
S'9036771'
p2131
ag10
ag4
ag11
aa(lp2132
S'9546159'
p2133
ag10
ag10
ag11
aa(lp2134
S'9104620'
p2135
ag3
ag10
ag5
aa(lp2136
S'9716943'
p2137
ag3
ag4
ag5
aa(lp2138
S'9150196'
p2139
ag3
ag4
ag5
aa(lp2140
S'9709164'
p2141
ag10
ag4
ag11
aa(lp2142
S'9900668'
p2143
ag3
ag10
ag5
aa(lp2144
S'9224983'
p2145
ag10
ag4
ag11
aa(lp2146
S'9763603'
p2147
ag3
ag4
ag5
aa(lp2148
S'9723032'
p2149
ag10
ag10
ag11
aa(lp2150
S'9009623'
p2151
ag3
ag4
ag5
aa(lp2152
S'9853267'
p2153
ag10
ag4
ag11
aa(lp2154
S'9167460'
p2155
ag3
ag4
ag5
aa(lp2156
S'9263153'
p2157
ag10
ag4
ag11
aa(lp2158
S'9764454'
p2159
ag10
ag4
ag11
aa(lp2160
S'9423086'
p2161
ag10
ag10
ag11
aa(lp2162
S'9368252'
p2163
ag3
ag4
ag5
aa(lp2164
S'9465413'
p2165
ag10
ag4
ag11
aa(lp2166
S'9431280'
p2167
ag3
ag4
ag5
aa(lp2168
S'9275309'
p2169
ag3
ag4
ag5
aa(lp2170
S'9486748'
p2171
ag10
ag10
ag11
aa(lp2172
S'9201011'
p2173
ag10
ag4
ag11
aa(lp2174
S'9023193'
p2175
ag3
ag4
ag5
aa(lp2176
S'9815657'
p2177
ag10
ag4
ag11
aa(lp2178
S'9546329'
p2179
ag10
ag4
ag11
aa(lp2180
S'9272833'
p2181
ag3
ag4
ag5
aa(lp2182
S'9483766'
p2183
ag10
ag4
ag11
aa(lp2184
S'9867760'
p2185
ag10
ag4
ag11
aa(lp2186
S'9629197'
p2187
ag10
ag4
ag11
aa(lp2188
S'9813353'
p2189
ag3
ag4
ag5
aa(lp2190
S'9669752'
p2191
ag3
ag4
ag5
aa(lp2192
S'9537888'
p2193
ag10
ag4
ag11
aa(lp2194
S'9294354'
p2195
ag10
ag4
ag11
aa(lp2196
S'9789295'
p2197
ag10
ag4
ag11
aa(lp2198
S'9347441'
p2199
ag10
ag4
ag11
aa(lp2200
S'9458237'
p2201
ag3
ag4
ag5
aa(lp2202
S'9194860'
p2203
ag3
ag4
ag5
aa(lp2204
S'9957226'
p2205
ag3
ag4
ag5
aa(lp2206
S'9316905'
p2207
ag3
ag4
ag5
aa(lp2208
S'9597688'
p2209
ag10
ag4
ag11
aa(lp2210
S'9005656'
p2211
ag3
ag4
ag5
aa(lp2212
S'9134955'
p2213
ag10
ag4
ag11
aa(lp2214
S'9411979'
p2215
ag10
ag4
ag11
aa(lp2216
S'9381995'
p2217
ag10
ag4
ag11
aa(lp2218
S'9310416'
p2219
ag10
ag4
ag11
aa(lp2220
S'9398970'
p2221
ag3
ag4
ag5
aa(lp2222
S'9548159'
p2223
ag3
ag10
ag5
aa(lp2224
S'9791525'
p2225
ag3
ag4
ag5
aa(lp2226
S'9836853'
p2227
ag3
ag4
ag5
aa(lp2228
S'9728920'
p2229
ag10
ag10
ag11
aa(lp2230
S'9506357'
p2231
ag3
ag4
ag5
aa(lp2232
S'9178886'
p2233
ag3
ag4
ag5
aa(lp2234
S'9695948'
p2235
ag3
ag4
ag5
aa(lp2236
S'9997856'
p2237
ag10
ag4
ag11
aa(lp2238
S'9857351'
p2239
ag3
ag4
ag5
aa(lp2240
S'9314101'
p2241
ag3
ag4
ag5
aa(lp2242
S'9445264'
p2243
ag10
ag4
ag11
aa(lp2244
S'9561824'
p2245
ag10
ag4
ag11
aa(lp2246
S'9608703'
p2247
ag3
ag4
ag5
aa(lp2248
S'9460109'
p2249
ag10
ag4
ag11
aa(lp2250
S'9562160'
p2251
ag3
ag4
ag5
aa(lp2252
S'9004315'
p2253
ag3
ag4
ag5
aa(lp2254
S'9069761'
p2255
ag3
ag4
ag5
aa(lp2256
S'9085393'
p2257
ag3
ag4
ag5
aa(lp2258
S'9543020'
p2259
ag3
ag10
ag5
aa(lp2260
S'9474706'
p2261
ag10
ag4
ag11
aa(lp2262
S'9951122'
p2263
ag10
ag4
ag11
aa(lp2264
S'9856744'
p2265
ag10
ag4
ag11
aa(lp2266
S'9130362'
p2267
ag10
ag4
ag11
aa(lp2268
S'9718167'
p2269
ag3
ag4
ag5
aa(lp2270
S'9940058'
p2271
ag3
ag4
ag5
aa(lp2272
S'9482887'
p2273
ag3
ag10
ag5
aa(lp2274
S'9191054'
p2275
ag3
ag4
ag5
aa(lp2276
S'9245917'
p2277
ag3
ag4
ag5
aa(lp2278
S'9447378'
p2279
ag10
ag4
ag11
aa(lp2280
S'9565710'
p2281
ag3
ag4
ag5
aa(lp2282
S'9621650'
p2283
ag10
ag4
ag11
aa(lp2284
S'9871097'
p2285
ag3
ag4
ag5
aa(lp2286
S'9057000'
p2287
ag10
ag4
ag11
aa(lp2288
S'9070903'
p2289
ag3
ag4
ag5
aa(lp2290
S'9748304'
p2291
ag10
ag10
ag11
aa(lp2292
S'9526432'
p2293
ag3
ag4
ag5
aa(lp2294
S'9128011'
p2295
ag3
ag4
ag5
aa(lp2296
S'9772008'
p2297
ag3
ag4
ag5
aa(lp2298
S'9659659'
p2299
ag10
ag4
ag11
aa(lp2300
S'9762454'
p2301
ag3
ag4
ag5
aa(lp2302
S'9751625'
p2303
ag3
ag4
ag5
aa(lp2304
S'9019406'
p2305
ag3
ag4
ag5
aa(lp2306
S'9654072'
p2307
ag10
ag4
ag11
aa(lp2308
S'9041946'
p2309
ag10
ag10
ag11
aa(lp2310
S'9589708'
p2311
ag3
ag4
ag5
aa(lp2312
S'9542889'
p2313
ag10
ag10
ag11
aa(lp2314
S'9061827'
p2315
ag10
ag4
ag11
aa(lp2316
S'9804376'
p2317
ag3
ag4
ag5
aa(lp2318
S'9235448'
p2319
ag3
ag4
ag5
aa(lp2320
S'9180492'
p2321
ag10
ag4
ag11
aa(lp2322
S'9302536'
p2323
ag10
ag4
ag11
aa(lp2324
S'9879242'
p2325
ag3
ag4
ag5
aa(lp2326
S'9533617'
p2327
ag10
ag4
ag11
aa(lp2328
S'9245539'
p2329
ag3
ag4
ag5
aa(lp2330
S'9173587'
p2331
ag3
ag10
ag5
aa(lp2332
S'9568180'
p2333
ag3
ag10
ag5
aa(lp2334
S'9014797'
p2335
ag10
ag10
ag11
aa(lp2336
S'9577425'
p2337
ag10
ag4
ag11
aa(lp2338
S'9359405'
p2339
ag10
ag4
ag11
aa(lp2340
S'9502442'
p2341
ag10
ag4
ag11
aa(lp2342
S'9064631'
p2343
ag10
ag10
ag11
aa(lp2344
S'9413676'
p2345
ag10
ag4
ag11
aa(lp2346
S'9232553'
p2347
ag3
ag4
ag5
aa(lp2348
S'9669990'
p2349
ag3
ag4
ag5
aa(lp2350
S'9303044'
p2351
ag3
ag4
ag5
aa(lp2352
S'9927054'
p2353
ag3
ag4
ag5
aa(lp2354
S'9160270'
p2355
ag3
ag4
ag5
aa(lp2356
S'9947497'
p2357
ag3
ag4
ag5
aa(lp2358
S'9602012'
p2359
ag3
ag4
ag5
aa(lp2360
S'9787576'
p2361
ag10
ag4
ag11
aa(lp2362
S'9232259'
p2363
ag3
ag4
ag5
aa(lp2364
S'9840270'
p2365
ag10
ag4
ag11
aa(lp2366
S'9476561'
p2367
ag10
ag10
ag11
aa(lp2368
S'9396242'
p2369
ag10
ag10
ag11
aa(lp2370
S'9780632'
p2371
ag3
ag4
ag5
aa(lp2372
S'9178780'
p2373
ag3
ag4
ag5
aa(lp2374
S'9282182'
p2375
ag3
ag10
ag5
aa(lp2376
S'9006407'
p2377
ag3
ag4
ag5
aa(lp2378
S'9724907'
p2379
ag3
ag4
ag5
aa(lp2380
S'9465162'
p2381
ag3
ag4
ag5
aa(lp2382
S'9175275'
p2383
ag10
ag4
ag11
aa(lp2384
S'9403165'
p2385
ag10
ag10
ag11
aa(lp2386
S'9527954'
p2387
ag3
ag4
ag5
aa(lp2388
S'9597737'
p2389
ag10
ag4
ag11
aa(lp2390
S'9894047'
p2391
ag10
ag10
ag11
aa(lp2392
S'9123289'
p2393
ag3
ag4
ag5
aa(lp2394
S'9220441'
p2395
ag10
ag4
ag11
aa(lp2396
S'9564716'
p2397
ag3
ag4
ag5
aa(lp2398
S'9401050'
p2399
ag3
ag4
ag5
aa(lp2400
S'9974855'
p2401
ag10
ag4
ag11
aa(lp2402
S'9246415'
p2403
ag3
ag4
ag5
aa(lp2404
S'9770003'
p2405
ag10
ag4
ag11
aa(lp2406
S'9615227'
p2407
ag3
ag4
ag5
aa(lp2408
S'9589486'
p2409
ag3
ag4
ag5
aa(lp2410
S'9684211'
p2411
ag3
ag4
ag5
aa(lp2412
S'9200078'
p2413
ag10
ag4
ag11
aa(lp2414
S'9009957'
p2415
ag3
ag10
ag5
aa(lp2416
S'9898582'
p2417
ag3
ag4
ag5
aa(lp2418
S'9526247'
p2419
ag10
ag4
ag11
aa(lp2420
S'9283061'
p2421
ag3
ag4
ag5
aa(lp2422
S'9934795'
p2423
ag3
ag4
ag5
aa(lp2424
S'9022197'
p2425
ag3
ag4
ag5
aa(lp2426
S'9164965'
p2427
ag3
ag4
ag5
aa(lp2428
S'9295223'
p2429
ag3
ag10
ag5
aa(lp2430
S'9955666'
p2431
ag3
ag4
ag5
aa(lp2432
S'9779635'
p2433
ag3
ag4
ag5
aa(lp2434
S'9619227'
p2435
ag3
ag4
ag5
aa(lp2436
S'9935953'
p2437
ag3
ag4
ag5
aa(lp2438
S'9812739'
p2439
ag3
ag4
ag5
aa(lp2440
S'9094783'
p2441
ag3
ag4
ag5
aa(lp2442
S'9547611'
p2443
ag3
ag10
ag5
aa(lp2444
S'9368106'
p2445
ag3
ag4
ag5
aa(lp2446
S'9095389'
p2447
ag10
ag4
ag11
aa(lp2448
S'9685830'
p2449
ag10
ag10
ag11
aa(lp2450
S'9413377'
p2451
ag10
ag4
ag11
aa(lp2452
S'9532902'
p2453
ag10
ag4
ag11
aa(lp2454
S'9039627'
p2455
ag10
ag10
ag11
aa(lp2456
S'9999510'
p2457
ag10
ag10
ag11
aa(lp2458
S'9160026'
p2459
ag10
ag4
ag11
aa(lp2460
S'9343691'
p2461
ag10
ag4
ag11
aa(lp2462
S'9321373'
p2463
ag10
ag4
ag11
aa(lp2464
S'9366178'
p2465
ag10
ag4
ag11
aa(lp2466
S'9862725'
p2467
ag3
ag4
ag5
aa(lp2468
S'9564245'
p2469
ag3
ag4
ag5
aa(lp2470
S'9197274'
p2471
ag10
ag4
ag11
aa(lp2472
S'9170503'
p2473
ag3
ag4
ag5
aa(lp2474
S'9207016'
p2475
ag3
ag4
ag5
aa(lp2476
S'9966213'
p2477
ag10
ag4
ag11
aa(lp2478
S'9055038'
p2479
ag3
ag10
ag5
aa(lp2480
S'9512947'
p2481
ag10
ag4
ag11
aa(lp2482
S'9629713'
p2483
ag3
ag4
ag5
aa(lp2484
S'9402055'
p2485
ag3
ag10
ag5
aa(lp2486
S'9248710'
p2487
ag3
ag4
ag5
aa(lp2488
S'9860831'
p2489
ag10
ag10
ag11
aa(lp2490
S'9159961'
p2491
ag3
ag4
ag5
aa(lp2492
S'9184949'
p2493
ag3
ag10
ag5
aa(lp2494
S'9919499'
p2495
ag3
ag4
ag5
aa(lp2496
S'9910787'
p2497
ag3
ag4
ag5
aa(lp2498
S'9643032'
p2499
ag10
ag4
ag11
aa(lp2500
S'9621886'
p2501
ag3
ag4
ag5
aa(lp2502
S'9051960'
p2503
ag3
ag4
ag5
aa(lp2504
S'9564036'
p2505
ag3
ag4
ag5
aa(lp2506
S'9695430'
p2507
ag10
ag4
ag11
aa(lp2508
S'9949467'
p2509
ag10
ag4
ag11
aa(lp2510
S'9458391'
p2511
ag3
ag4
ag5
aa(lp2512
S'9192585'
p2513
ag10
ag4
ag11
aa(lp2514
S'9825304'
p2515
ag10
ag4
ag11
aa(lp2516
S'9802822'
p2517
ag3
ag4
ag5
aa(lp2518
S'9494408'
p2519
ag3
ag10
ag5
aa(lp2520
S'9974824'
p2521
ag3
ag4
ag5
aa(lp2522
S'9300939'
p2523
ag10
ag4
ag11
aa(lp2524
S'9652149'
p2525
ag3
ag4
ag5
aa(lp2526
S'9211009'
p2527
ag10
ag4
ag11
aa(lp2528
S'9942935'
p2529
ag3
ag4
ag5
aa(lp2530
S'9588277'
p2531
ag3
ag4
ag5
aa(lp2532
S'9525846'
p2533
ag10
ag4
ag11
aa(lp2534
S'9485404'
p2535
ag10
ag4
ag11
aa(lp2536
S'9898713'
p2537
ag3
ag4
ag5
aa(lp2538
S'9527520'
p2539
ag3
ag4
ag5
aa(lp2540
S'9197274'
p2541
ag3
ag4
ag5
aa(lp2542
S'9554395'
p2543
ag3
ag4
ag5
aa(lp2544
S'9804177'
p2545
ag10
ag10
ag11
aa(lp2546
S'9089627'
p2547
ag3
ag10
ag5
aa(lp2548
S'9913323'
p2549
ag3
ag4
ag5
aa(lp2550
S'9033275'
p2551
ag3
ag4
ag5
aa(lp2552
S'9250986'
p2553
ag10
ag4
ag11
aa(lp2554
S'9069786'
p2555
ag10
ag4
ag11
aa(lp2556
S'9050299'
p2557
ag3
ag4
ag5
aa(lp2558
S'9040892'
p2559
ag10
ag4
ag11
aa(lp2560
S'9009623'
p2561
ag10
ag4
ag11
aa(lp2562
S'9241153'
p2563
ag10
ag4
ag11
aa(lp2564
S'9556150'
p2565
ag10
ag4
ag11
aa(lp2566
S'9893729'
p2567
ag3
ag4
ag5
aa(lp2568
S'9382992'
p2569
ag3
ag4
ag5
aa(lp2570
S'9739300'
p2571
ag10
ag4
ag11
aa(lp2572
S'9867247'
p2573
ag10
ag4
ag11
aa(lp2574
S'9246995'
p2575
ag3
ag4
ag5
aa(lp2576
S'9004315'
p2577
ag10
ag4
ag11
aa(lp2578
S'9934310'
p2579
ag10
ag10
ag11
aa(lp2580
S'9781749'
p2581
ag3
ag4
ag5
aa(lp2582
S'9590699'
p2583
ag10
ag4
ag11
aa(lp2584
S'9570722'
p2585
ag3
ag4
ag5
aa(lp2586
S'9995913'
p2587
ag10
ag4
ag11
aa(lp2588
S'9531657'
p2589
ag3
ag4
ag5
aa(lp2590
S'9222485'
p2591
ag10
ag4
ag11
aa(lp2592
S'9556561'
p2593
ag10
ag4
ag11
aa(lp2594
S'9999365'
p2595
ag3
ag10
ag5
aa(lp2596
S'9842816'
p2597
ag3
ag4
ag5
aa(lp2598
S'9234073'
p2599
ag3
ag4
ag5
aa(lp2600
S'9389965'
p2601
ag10
ag4
ag11
aa(lp2602
S'9650570'
p2603
ag3
ag4
ag5
aa(lp2604
S'9767980'
p2605
ag3
ag4
ag5
aa(lp2606
S'9263959'
p2607
ag3
ag4
ag5
aa(lp2608
S'9918304'
p2609
ag3
ag10
ag5
aa(lp2610
S'9270077'
p2611
ag3
ag4
ag5
aa(lp2612
S'9693599'
p2613
ag3
ag4
ag5
aa(lp2614
S'9684366'
p2615
ag3
ag4
ag5
aa(lp2616
S'9747589'
p2617
ag10
ag4
ag11
aa(lp2618
S'9609253'
p2619
ag3
ag4
ag5
aa(lp2620
S'9005656'
p2621
ag10
ag4
ag11
aa(lp2622
S'9075745'
p2623
ag10
ag4
ag11
aa(lp2624
S'9242925'
p2625
ag3
ag4
ag5
aa(lp2626
S'9915764'
p2627
ag10
ag4
ag11
aa(lp2628
S'9575697'
p2629
ag3
ag4
ag5
aa(lp2630
S'9333793'
p2631
ag10
ag4
ag11
aa(lp2632
S'9817661'
p2633
ag10
ag10
ag11
aa(lp2634
S'9585175'
p2635
ag10
ag10
ag11
aa(lp2636
S'9669962'
p2637
ag10
ag4
ag11
aa(lp2638
S'9993442'
p2639
ag3
ag4
ag5
aa(lp2640
S'9245539'
p2641
ag10
ag4
ag11
aa(lp2642
S'9721284'
p2643
ag10
ag10
ag11
aa(lp2644
S'9283061'
p2645
ag10
ag4
ag11
aa(lp2646
S'9602668'
p2647
ag10
ag4
ag11
aa(lp2648
S'9836062'
p2649
ag3
ag4
ag5
aa(lp2650
S'9863737'
p2651
ag3
ag4
ag5
aa(lp2652
S'9245519'
p2653
ag10
ag4
ag11
aa(lp2654
S'9369225'
p2655
ag10
ag4
ag11
aa(lp2656
S'9371094'
p2657
ag3
ag4
ag5
aa(lp2658
S'9509373'
p2659
ag3
ag4
ag5
aa(lp2660
S'9337418'
p2661
ag10
ag4
ag11
aa(lp2662
S'9915540'
p2663
ag10
ag4
ag11
aa(lp2664
S'9339252'
p2665
ag10
ag4
ag11
aa(lp2666
S'9307716'
p2667
ag10
ag4
ag11
aa(lp2668
S'9685238'
p2669
ag10
ag4
ag11
aa(lp2670
S'9525435'
p2671
ag10
ag4
ag11
aa(lp2672
S'9900208'
p2673
ag3
ag4
ag5
aa(lp2674
S'9433408'
p2675
ag10
ag4
ag11
aa(lp2676
S'9953302'
p2677
ag10
ag10
ag11
aa(lp2678
S'9378288'
p2679
ag10
ag10
ag11
aa(lp2680
S'9813851'
p2681
ag3
ag4
ag5
aa(lp2682
S'9854837'
p2683
ag10
ag4
ag11
aa(lp2684
S'9172013'
p2685
ag3
ag4
ag5
aa(lp2686
S'9053872'
p2687
ag10
ag4
ag11
aa(lp2688
S'9934310'
p2689
ag3
ag4
ag5
aa(lp2690
S'9500225'
p2691
ag3
ag4
ag5
aa(lp2692
S'9203957'
p2693
ag3
ag10
ag5
aa(lp2694
S'9268652'
p2695
ag10
ag10
ag11
aa(lp2696
S'9751381'
p2697
ag10
ag4
ag11
aa(lp2698
S'9178840'
p2699
ag3
ag4
ag5
aa(lp2700
S'9126497'
p2701
ag10
ag4
ag11
aa(lp2702
S'9879214'
p2703
ag10
ag4
ag11
aa(lp2704
S'9980752'
p2705
ag10
ag4
ag11
aa(lp2706
S'9553907'
p2707
ag10
ag4
ag11
aa(lp2708
S'9230073'
p2709
ag10
ag10
ag11
aa(lp2710
S'9600538'
p2711
ag3
ag10
ag5
aa(lp2712
S'9010308'
p2713
ag3
ag4
ag5
aa(lp2714
S'9510943'
p2715
ag10
ag4
ag11
aa(lp2716
S'9424368'
p2717
ag10
ag4
ag11
aa(lp2718
S'9797299'
p2719
ag3
ag4
ag5
aa(lp2720
S'9737302'
p2721
ag10
ag4
ag11
aa(lp2722
S'9697342'
p2723
ag3
ag4
ag5
aa(lp2724
S'9079404'
p2725
ag3
ag4
ag5
aa(lp2726
S'9336746'
p2727
ag10
ag4
ag11
aa(lp2728
S'9621208'
p2729
ag10
ag10
ag11
aa(lp2730
S'9281052'
p2731
ag3
ag10
ag5
aa(lp2732
S'9000622'
p2733
ag10
ag4
ag11
aa(lp2734
S'9445264'
p2735
ag3
ag4
ag5
aa(lp2736
S'9201046'
p2737
ag3
ag10
ag5
aa(lp2738
S'9763419'
p2739
ag3
ag4
ag5
aa(lp2740
S'9358131'
p2741
ag10
ag10
ag11
aa(lp2742
S'9385984'
p2743
ag3
ag10
ag5
aa(lp2744
S'9522950'
p2745
ag3
ag4
ag5
aa(lp2746
S'9876792'
p2747
ag3
ag4
ag5
aa(lp2748
S'9474706'
p2749
ag3
ag10
ag5
aa(lp2750
S'9765203'
p2751
ag10
ag4
ag11
aa(lp2752
S'9531421'
p2753
ag10
ag4
ag11
aa(lp2754
S'9708416'
p2755
ag10
ag4
ag11
aa(lp2756
S'9193589'
p2757
ag3
ag4
ag5
aa(lp2758
S'9016886'
p2759
ag10
ag4
ag11
aa(lp2760
S'9879214'
p2761
ag3
ag4
ag5
aa(lp2762
S'9436187'
p2763
ag3
ag4
ag5
aa(lp2764
S'9184790'
p2765
ag3
ag4
ag5
aa(lp2766
S'9207905'
p2767
ag3
ag4
ag5
aa(lp2768
S'9400081'
p2769
ag3
ag4
ag5
aa(lp2770
S'9088175'
p2771
ag10
ag4
ag11
aa(lp2772
S'9571740'
p2773
ag10
ag4
ag11
aa(lp2774
S'9826718'
p2775
ag10
ag10
ag11
aa(lp2776
S'9040456'
p2777
ag10
ag4
ag11
aa(lp2778
S'9375122'
p2779
ag10
ag4
ag11
aa(lp2780
S'9566233'
p2781
ag3
ag4
ag5
aa(lp2782
S'9842266'
p2783
ag10
ag4
ag11
aa(lp2784
S'9368252'
p2785
ag10
ag4
ag11
aa(lp2786
S'9662703'
p2787
ag3
ag4
ag5
aa(lp2788
S'9081879'
p2789
ag3
ag4
ag5
aa(lp2790
S'9735805'
p2791
ag10
ag4
ag11
aa(lp2792
S'9441140'
p2793
ag3
ag4
ag5
aa(lp2794
S'9409501'
p2795
ag3
ag10
ag5
aa(lp2796
S'9865771'
p2797
ag10
ag10
ag11
aa(lp2798
S'9975280'
p2799
ag3
ag10
ag5
aa(lp2800
S'9570733'
p2801
ag3
ag4
ag5
aa(lp2802
S'9797352'
p2803
ag10
ag10
ag11
aa(lp2804
S'9808689'
p2805
ag10
ag4
ag11
aa(lp2806
S'9394122'
p2807
ag10
ag4
ag11
aa(lp2808
S'9319366'
p2809
ag3
ag4
ag5
aa(lp2810
S'9142896'
p2811
ag3
ag4
ag5
aa(lp2812
S'9384158'
p2813
ag3
ag4
ag5
aa(lp2814
S'9038876'
p2815
ag3
ag4
ag5
aa(lp2816
S'9421302'
p2817
ag3
ag4
ag5
aa(lp2818
S'9209896'
p2819
ag3
ag10
ag5
aa(lp2820
S'9526434'
p2821
ag3
ag4
ag5
aa(lp2822
S'9505417'
p2823
ag10
ag4
ag11
aa(lp2824
S'9097360'
p2825
ag3
ag4
ag5
aa(lp2826
S'9522881'
p2827
ag3
ag4
ag5
aa(lp2828
S'9319367'
p2829
ag3
ag10
ag5
aa(lp2830
S'9803586'
p2831
ag10
ag4
ag11
aa(lp2832
S'9339337'
p2833
ag10
ag4
ag11
aa(lp2834
S'9365192'
p2835
ag10
ag4
ag11
aa(lp2836
S'9637159'
p2837
ag3
ag4
ag5
aa(lp2838
S'9833782'
p2839
ag3
ag10
ag5
aa(lp2840
S'9859873'
p2841
ag10
ag4
ag11
aa(lp2842
S'9738052'
p2843
ag3
ag4
ag5
aa(lp2844
S'9208283'
p2845
ag10
ag4
ag11
aa(lp2846
S'9455502'
p2847
ag3
ag4
ag5
aa(lp2848
S'9512848'
p2849
ag3
ag4
ag5
aa(lp2850
S'9522128'
p2851
ag3
ag4
ag5
aa(lp2852
S'9532533'
p2853
ag10
ag4
ag11
aa(lp2854
S'9434520'
p2855
ag10
ag4
ag11
aa(lp2856
S'9628081'
p2857
ag3
ag4
ag5
aa(lp2858
S'9353670'
p2859
ag3
ag4
ag5
aa(lp2860
S'9649392'
p2861
ag10
ag4
ag11
aa(lp2862
S'9328376'
p2863
ag3
ag4
ag5
aa(lp2864
S'9788979'
p2865
ag3
ag4
ag5
aa(lp2866
S'9305272'
p2867
ag3
ag4
ag5
aa(lp2868
S'9381081'
p2869
ag10
ag4
ag11
aa(lp2870
S'9793543'
p2871
ag10
ag10
ag11
aa(lp2872
S'9977273'
p2873
ag3
ag4
ag5
aa(lp2874
S'9653214'
p2875
ag3
ag4
ag5
aa(lp2876
S'9649602'
p2877
ag3
ag4
ag5
aa(lp2878
S'9907800'
p2879
ag10
ag4
ag11
aa(lp2880
S'9651895'
p2881
ag3
ag4
ag5
aa(lp2882
S'9532533'
p2883
ag3
ag4
ag5
aa(lp2884
S'9742066'
p2885
ag3
ag4
ag5
aa(lp2886
S'9597417'
p2887
ag10
ag4
ag11
aa(lp2888
S'9429115'
p2889
ag3
ag4
ag5
aa(lp2890
S'9596903'
p2891
ag3
ag4
ag5
aa(lp2892
S'9614618'
p2893
ag10
ag4
ag11
aa(lp2894
S'9951159'
p2895
ag10
ag4
ag11
aa(lp2896
S'9199070'
p2897
ag3
ag4
ag5
aa(lp2898
S'9837054'
p2899
ag10
ag4
ag11
aa(lp2900
S'9225871'
p2901
ag3
ag4
ag5
aa(lp2902
S'9022408'
p2903
ag10
ag4
ag11
aa(lp2904
S'9068197'
p2905
ag10
ag4
ag11
aa(lp2906
S'9890414'
p2907
ag10
ag10
ag11
aa(lp2908
S'9619216'
p2909
ag3
ag4
ag5
aa(lp2910
S'9434114'
p2911
ag10
ag10
ag11
aa(lp2912
S'9529761'
p2913
ag10
ag4
ag11
aa(lp2914
S'9928082'
p2915
ag10
ag10
ag11
aa(lp2916
S'9327829'
p2917
ag10
ag4
ag11
aa(lp2918
S'9461826'
p2919
ag3
ag4
ag5
aa(lp2920
S'9547559'
p2921
ag3
ag4
ag5
aa(lp2922
S'9434010'
p2923
ag3
ag4
ag5
aa(lp2924
S'9513843'
p2925
ag10
ag4
ag11
aa(lp2926
S'9953518'
p2927
ag10
ag10
ag11
aa(lp2928
S'9767980'
p2929
ag10
ag4
ag11
aa(lp2930
S'9590145'
p2931
ag10
ag4
ag11
aa(lp2932
S'9637641'
p2933
ag3
ag4
ag5
aa(lp2934
S'9594682'
p2935
ag10
ag4
ag11
aa(lp2936
S'9840817'
p2937
ag10
ag4
ag11
aa(lp2938
S'9184556'
p2939
ag3
ag4
ag5
aa(lp2940
S'9498724'
p2941
ag10
ag4
ag11
aa(lp2942
S'9907090'
p2943
ag10
ag4
ag11
aa(lp2944
S'9740738'
p2945
ag10
ag4
ag11
aa(lp2946
S'9259394'
p2947
ag3
ag4
ag5
aa(lp2948
S'9802170'
p2949
ag3
ag4
ag5
aa(lp2950
S'9715892'
p2951
ag10
ag4
ag11
aa(lp2952
S'9948016'
p2953
ag10
ag4
ag11
aa(lp2954
S'9522615'
p2955
ag10
ag10
ag11
aa(lp2956
S'9018291'
p2957
ag10
ag4
ag11
aa(lp2958
S'9687630'
p2959
ag3
ag4
ag5
aa(lp2960
S'9834806'
p2961
ag3
ag4
ag5
aa(lp2962
S'9173013'
p2963
ag10
ag10
ag11
aa(lp2964
S'9383004'
p2965
ag10
ag4
ag11
aa(lp2966
S'9417104'
p2967
ag3
ag4
ag5
aa(lp2968
S'9775703'
p2969
ag10
ag4
ag11
aa(lp2970
S'9850238'
p2971
ag10
ag10
ag11
aa(lp2972
S'9247140'
p2973
ag3
ag4
ag5
aa(lp2974
S'9656559'
p2975
ag3
ag4
ag5
aa(lp2976
S'9911265'
p2977
ag10
ag10
ag11
aa(lp2978
S'9730028'
p2979
ag10
ag4
ag11
aa(lp2980
S'9538092'
p2981
ag3
ag4
ag5
aa(lp2982
S'9877906'
p2983
ag3
ag10
ag5
aa(lp2984
S'9282888'
p2985
ag10
ag10
ag11
aa(lp2986
S'9267508'
p2987
ag10
ag4
ag11
aa(lp2988
S'9070787'
p2989
ag10
ag4
ag11
aa(lp2990
S'9661713'
p2991
ag3
ag4
ag5
aa(lp2992
S'9513843'
p2993
ag3
ag4
ag5
aa(lp2994
S'9757487'
p2995
ag3
ag4
ag5
aa(lp2996
S'9459743'
p2997
ag10
ag4
ag11
aa(lp2998
S'9517311'
p2999
ag3
ag4
ag5
aa(lp3000
S'9656912'
p3001
ag10
ag10
ag11
aa(lp3002
S'9501891'
p3003
ag3
ag10
ag5
aa(lp3004
S'9072461'
p3005
ag3
ag4
ag5
aa(lp3006
S'9862772'
p3007
ag10
ag4
ag11
aa(lp3008
S'9272133'
p3009
ag3
ag4
ag5
aa(lp3010
S'9677236'
p3011
ag10
ag4
ag11
aa(lp3012
S'9455361'
p3013
ag3
ag4
ag5
aa(lp3014
S'9113414'
p3015
ag3
ag10
ag5
aa(lp3016
S'9468412'
p3017
ag3
ag4
ag5
aa(lp3018
S'9676793'
p3019
ag3
ag4
ag5
aa(lp3020
S'9162458'
p3021
ag3
ag4
ag5
aa(lp3022
S'9191465'
p3023
ag10
ag4
ag11
aa(lp3024
S'9275258'
p3025
ag3
ag4
ag5
aa(lp3026
S'9508414'
p3027
ag3
ag4
ag5
aa(lp3028
S'9565513'
p3029
ag10
ag10
ag11
aa(lp3030
S'9456857'
p3031
ag10
ag4
ag11
aa(lp3032
S'9805733'
p3033
ag10
ag4
ag11
aa(lp3034
S'9240548'
p3035
ag3
ag4
ag5
aa(lp3036
S'9759382'
p3037
ag3
ag4
ag5
aa(lp3038
S'9010370'
p3039
ag3
ag4
ag5
aa(lp3040
S'9681113'
p3041
ag3
ag4
ag5
aa(lp3042
S'9003430'
p3043
ag10
ag4
ag11
aa(lp3044
S'9325209'
p3045
ag3
ag10
ag5
aa(lp3046
S'9921353'
p3047
ag3
ag4
ag5
aa(lp3048
S'9019287'
p3049
ag3
ag4
ag5
aa(lp3050
S'9496386'
p3051
ag10
ag10
ag11
aa(lp3052
S'9426339'
p3053
ag3
ag4
ag5
aa(lp3054
S'9144547'
p3055
ag3
ag4
ag5
aa(lp3056
S'9170536'
p3057
ag3
ag4
ag5
aa(lp3058
S'9557040'
p3059
ag3
ag10
ag5
aa(lp3060
S'9893600'
p3061
ag10
ag4
ag11
aa(lp3062
S'9746250'
p3063
ag10
ag4
ag11
aa(lp3064
S'9747255'
p3065
ag3
ag10
ag5
aa(lp3066
S'9519898'
p3067
ag3
ag4
ag5
aa(lp3068
S'9504533'
p3069
ag3
ag4
ag5
aa(lp3070
S'9001400'
p3071
ag3
ag4
ag5
aa(lp3072
S'9871240'
p3073
ag3
ag4
ag5
aa(lp3074
S'9326364'
p3075
ag10
ag4
ag11
aa(lp3076
S'9938453'
p3077
ag10
ag4
ag11
aa(lp3078
S'9381081'
p3079
ag3
ag4
ag5
aa(lp3080
S'9382992'
p3081
ag10
ag4
ag11
aa(lp3082
S'9360132'
p3083
ag3
ag4
ag5
aa(lp3084
S'9559476'
p3085
ag10
ag10
ag11
aa(lp3086
S'9502364'
p3087
ag3
ag4
ag5
aa(lp3088
S'9984706'
p3089
ag10
ag10
ag11
aa(lp3090
S'9670515'
p3091
ag3
ag4
ag5
aa(lp3092
S'9229496'
p3093
ag3
ag4
ag5
aa(lp3094
S'9867247'
p3095
ag3
ag4
ag5
aa(lp3096
S'9643665'
p3097
ag3
ag10
ag5
aa(lp3098
S'9898582'
p3099
ag10
ag4
ag11
aa(lp3100
S'9166468'
p3101
ag3
ag4
ag5
aa(lp3102
S'9615754'
p3103
ag3
ag10
ag5
aa(lp3104
S'9470267'
p3105
ag3
ag4
ag5
aa(lp3106
S'9119950'
p3107
ag3
ag10
ag5
aa(lp3108
S'9569715'
p3109
ag10
ag4
ag11
aa(lp3110
S'9467563'
p3111
ag3
ag4
ag5
aa(lp3112
S'9671988'
p3113
ag10
ag4
ag11
aa(lp3114
S'9888515'
p3115
ag3
ag4
ag5
aa(lp3116
S'9562160'
p3117
ag10
ag4
ag11
aa(lp3118
S'9639388'
p3119
ag10
ag4
ag11
aa(lp3120
S'9237473'
p3121
ag3
ag4
ag5
aa(lp3122
S'9914944'
p3123
ag10
ag10
ag11
aa(lp3124
S'9191533'
p3125
ag3
ag4
ag5
aa(lp3126
S'9565007'
p3127
ag3
ag4
ag5
aa(lp3128
S'9257071'
p3129
ag3
ag4
ag5
aa(lp3130
S'9474901'
p3131
ag3
ag10
ag5
aa(lp3132
S'9862772'
p3133
ag3
ag4
ag5
aa(lp3134
S'9486827'
p3135
ag10
ag4
ag11
aa(lp3136
S'9569715'
p3137
ag3
ag10
ag5
aa(lp3138
S'9815657'
p3139
ag3
ag4
ag5
aa(lp3140
S'9990072'
p3141
ag3
ag4
ag5
aa(lp3142
S'9736924'
p3143
ag3
ag4
ag5
aa(lp3144
S'9847541'
p3145
ag3
ag4
ag5
aa(lp3146
S'9919343'
p3147
ag10
ag4
ag11
aa(lp3148
S'9125488'
p3149
ag10
ag4
ag11
aa(lp3150
S'9886298'
p3151
ag10
ag10
ag11
aa(lp3152
S'9273266'
p3153
ag3
ag4
ag5
aa(lp3154
S'9788608'
p3155
ag3
ag4
ag5
aa(lp3156
S'9172581'
p3157
ag10
ag4
ag11
aa(lp3158
S'9346398'
p3159
ag10
ag4
ag11
aa(lp3160
S'9176200'
p3161
ag3
ag4
ag5
aa(lp3162
S'9646127'
p3163
ag3
ag10
ag5
aa(lp3164
S'9703714'
p3165
ag3
ag4
ag5
aa(lp3166
S'9246995'
p3167
ag10
ag4
ag11
aa(lp3168
S'9157453'
p3169
ag3
ag4
ag5
aa(lp3170
S'9567019'
p3171
ag10
ag4
ag11
aa(lp3172
S'9854226'
p3173
ag10
ag4
ag11
aa(lp3174
S'9430888'
p3175
ag10
ag4
ag11
aa(lp3176
S'9624954'
p3177
ag3
ag4
ag5
aa(lp3178
S'9477358'
p3179
ag3
ag4
ag5
aa(lp3180
S'9878707'
p3181
ag10
ag4
ag11
aa(lp3182
S'9622185'
p3183
ag3
ag4
ag5
aa(lp3184
S'9516323'
p3185
ag10
ag4
ag11
aa(lp3186
S'9026695'
p3187
ag10
ag10
ag11
aa(lp3188
S'9160026'
p3189
ag3
ag4
ag5
aa(lp3190
S'9803321'
p3191
ag3
ag4
ag5
aa(lp3192
S'9729986'
p3193
ag10
ag4
ag11
aa(lp3194
S'9201052'
p3195
ag10
ag4
ag11
aa(lp3196
S'9289800'
p3197
ag3
ag4
ag5
aa(lp3198
S'9043446'
p3199
ag10
ag10
ag11
aa(lp3200
S'9282022'
p3201
ag3
ag4
ag5
aa(lp3202
S'9387094'
p3203
ag10
ag4
ag11
aa(lp3204
S'9234667'
p3205
ag3
ag4
ag5
aa(lp3206
S'9745458'
p3207
ag3
ag10
ag5
aa(lp3208
S'9575435'
p3209
ag10
ag4
ag11
aa(lp3210
S'9980800'
p3211
ag3
ag4
ag5
aa(lp3212
S'9252019'
p3213
ag3
ag4
ag5
aa(lp3214
S'9451217'
p3215
ag10
ag4
ag11
aa(lp3216
S'9566781'
p3217
ag3
ag4
ag5
aa(lp3218
S'9584925'
p3219
ag3
ag4
ag5
aa(lp3220
S'9021195'
p3221
ag10
ag4
ag11
aa(lp3222
S'9713986'
p3223
ag10
ag4
ag11
aa(lp3224
S'9423086'
p3225
ag3
ag4
ag5
aa(lp3226
S'9299531'
p3227
ag10
ag4
ag11
aa(lp3228
S'9809342'
p3229
ag3
ag4
ag5
aa(lp3230
S'9114544'
p3231
ag3
ag4
ag5
aa(lp3232
S'9450291'
p3233
ag3
ag4
ag5
aa(lp3234
S'9919047'
p3235
ag10
ag4
ag11
aa(lp3236
S'9529761'
p3237
ag3
ag4
ag5
aa(lp3238
S'9615227'
p3239
ag10
ag4
ag11
aa(lp3240
S'9854837'
p3241
ag3
ag4
ag5
aa(lp3242
S'9863321'
p3243
ag3
ag4
ag5
aa(lp3244
S'9075880'
p3245
ag3
ag4
ag5
aa(lp3246
S'9043945'
p3247
ag3
ag4
ag5
aa(lp3248
S'9512408'
p3249
ag10
ag4
ag11
aa(lp3250
S'9266652'
p3251
ag10
ag4
ag11
aa(lp3252
S'9239017'
p3253
ag10
ag4
ag11
aa(lp3254
S'9343449'
p3255
ag3
ag4
ag5
aa(lp3256
S'9355236'
p3257
ag3
ag4
ag5
aa(lp3258
S'9624154'
p3259
ag3
ag4
ag5
aa(lp3260
S'9803621'
p3261
ag10
ag4
ag11
aa(lp3262
S'9474270'
p3263
ag10
ag4
ag11
aa(lp3264
S'9775475'
p3265
ag3
ag4
ag5
aa(lp3266
S'9780482'
p3267
ag3
ag10
ag5
aa(lp3268
S'9324372'
p3269
ag10
ag4
ag11
aa(lp3270
S'9584990'
p3271
ag3
ag10
ag5
aa(lp3272
S'9292027'
p3273
ag10
ag4
ag11
aa(lp3274
S'9967960'
p3275
ag3
ag10
ag5
aa(lp3276
S'9091787'
p3277
ag10
ag4
ag11
aa(lp3278
S'9864266'
p3279
ag3
ag4
ag5
aa(lp3280
S'9519268'
p3281
ag3
ag4
ag5
aa(lp3282
S'9103968'
p3283
ag10
ag4
ag11
aa(lp3284
S'9420706'
p3285
ag3
ag4
ag5
aa(lp3286
S'9461271'
p3287
ag3
ag4
ag5
aa(lp3288
S'9745596'
p3289
ag10
ag4
ag11
aa(lp3290
S'9129477'
p3291
ag3
ag4
ag5
aa(lp3292
S'9780632'
p3293
ag10
ag4
ag11
aa(lp3294
S'9886696'
p3295
ag10
ag4
ag11
aa(lp3296
S'9103968'
p3297
ag3
ag4
ag5
aa(lp3298
S'9731969'
p3299
ag3
ag4
ag5
aa(lp3300
S'9964826'
p3301
ag10
ag4
ag11
aa(lp3302
S'9530377'
p3303
ag10
ag4
ag11
aa(lp3304
S'9903020'
p3305
ag3
ag4
ag5
aa(lp3306
S'9255715'
p3307
ag10
ag10
ag11
aa(lp3308
S'9233675'
p3309
ag3
ag4
ag5
aa(lp3310
S'9905024'
p3311
ag10
ag10
ag11
aa(lp3312
S'9800154'
p3313
ag10
ag4
ag11
aa(lp3314
S'9465287'
p3315
ag3
ag4
ag5
aa(lp3316
S'9599018'
p3317
ag3
ag10
ag5
aa(lp3318
S'9993261'
p3319
ag10
ag4
ag11
aa(lp3320
S'9638478'
p3321
ag3
ag4
ag5
aa(lp3322
S'9355390'
p3323
ag3
ag4
ag5
aa(lp3324
S'9449412'
p3325
ag10
ag4
ag11
aa(lp3326
S'9038876'
p3327
ag10
ag4
ag11
aa(lp3328
S'9982251'
p3329
ag3
ag4
ag5
aa(lp3330
S'9898745'
p3331
ag10
ag4
ag11
aa(lp3332
S'9511898'
p3333
ag3
ag4
ag5
aa(lp3334
S'9483456'
p3335
ag10
ag10
ag11
aa(lp3336
S'9252427'
p3337
ag3
ag4
ag5
aa(lp3338
S'9376360'
p3339
ag3
ag4
ag5
aa(lp3340
S'9434276'
p3341
ag10
ag4
ag11
aa(lp3342
S'9501860'
p3343
ag10
ag4
ag11
aa(lp3344
S'9552835'
p3345
ag3
ag4
ag5
aa(lp3346
S'9982186'
p3347
ag10
ag4
ag11
aa(lp3348
S'9959640'
p3349
ag10
ag4
ag11
aa(lp3350
S'9227993'
p3351
ag3
ag4
ag5
aa(lp3352
S'9405034'
p3353
ag3
ag4
ag5
aa(lp3354
S'9581241'
p3355
ag10
ag10
ag11
aa(lp3356
S'9657917'
p3357
ag10
ag4
ag11
aa(lp3358
S'9035779'
p3359
ag10
ag4
ag11
aa(lp3360
S'9636690'
p3361
ag10
ag4
ag11
aa(lp3362
S'9455100'
p3363
ag10
ag4
ag11
aa(lp3364
S'9795389'
p3365
ag10
ag4
ag11
aa(lp3366
S'9584428'
p3367
ag10
ag4
ag11
aa(lp3368
S'9184495'
p3369
ag3
ag4
ag5
aa(lp3370
S'9869252'
p3371
ag10
ag4
ag11
aa(lp3372
S'9282330'
p3373
ag10
ag4
ag11
aa(lp3374
S'9503361'
p3375
ag10
ag4
ag11
aa(lp3376
S'9921811'
p3377
ag3
ag4
ag5
aa(lp3378
S'9485448'
p3379
ag10
ag4
ag11
aa(lp3380
S'9931342'
p3381
ag10
ag4
ag11
aa(lp3382
S'9400975'
p3383
ag3
ag4
ag5
aa(lp3384
S'9886598'
p3385
ag3
ag4
ag5
aa(lp3386
S'9554126'
p3387
ag10
ag4
ag11
aa(lp3388
S'9416063'
p3389
ag3
ag4
ag5
aa(lp3390
S'9999365'
p3391
ag10
ag4
ag11
aa(lp3392
S'9683564'
p3393
ag3
ag4
ag5
aa(lp3394
S'9981815'
p3395
ag3
ag4
ag5
aa(lp3396
S'9453107'
p3397
ag3
ag4
ag5
aa(lp3398
S'9059339'
p3399
ag10
ag4
ag11
aa(lp3400
S'9355112'
p3401
ag3
ag4
ag5
aa(lp3402
S'9781154'
p3403
ag3
ag4
ag5
aa(lp3404
S'9805894'
p3405
ag3
ag4
ag5
aa(lp3406
S'9425004'
p3407
ag10
ag4
ag11
aa(lp3408
S'9417544'
p3409
ag3
ag4
ag5
aa(lp3410
S'9740738'
p3411
ag3
ag4
ag5
aa(lp3412
S'9668126'
p3413
ag3
ag4
ag5
aa(lp3414
S'9325745'
p3415
ag3
ag4
ag5
aa(lp3416
S'9432585'
p3417
ag3
ag4
ag5
aa(lp3418
S'9120358'
p3419
ag10
ag4
ag11
aa(lp3420
S'9506155'
p3421
ag3
ag4
ag5
aa(lp3422
S'9131496'
p3423
ag3
ag4
ag5
aa(lp3424
S'9759454'
p3425
ag10
ag4
ag11
aa(lp3426
S'9993362'
p3427
ag3
ag4
ag5
aa(lp3428
S'9619157'
p3429
ag10
ag4
ag11
aa(lp3430
S'9017419'
p3431
ag3
ag4
ag5
aa(lp3432
S'9116534'
p3433
ag10
ag4
ag11
aa(lp3434
S'9664863'
p3435
ag10
ag4
ag11
aa(lp3436
S'9974327'
p3437
ag3
ag4
ag5
aa(lp3438
S'9611246'
p3439
ag10
ag4
ag11
aa(lp3440
S'9226100'
p3441
ag10
ag4
ag11
aa(lp3442
S'9152442'
p3443
ag3
ag4
ag5
aa(lp3444
S'9448563'
p3445
ag10
ag4
ag11
aa(lp3446
S'9938453'
p3447
ag3
ag10
ag5
aa(lp3448
S'9568130'
p3449
ag3
ag4
ag5
aa(lp3450
S'9877252'
p3451
ag3
ag4
ag5
aa(lp3452
S'9125488'
p3453
ag3
ag4
ag5
aa(lp3454
S'9822877'
p3455
ag10
ag4
ag11
aa(lp3456
S'9570708'
p3457
ag3
ag4
ag5
aa(lp3458
S'9405034'
p3459
ag10
ag4
ag11
aa(lp3460
S'9270566'
p3461
ag10
ag10
ag11
aa(lp3462
S'9410036'
p3463
ag10
ag4
ag11
aa(lp3464
S'9847480'
p3465
ag3
ag4
ag5
aa(lp3466
S'9686621'
p3467
ag10
ag4
ag11
aa(lp3468
S'9582125'
p3469
ag3
ag4
ag5
aa(lp3470
S'9533386'
p3471
ag10
ag4
ag11
aa(lp3472
S'9241546'
p3473
ag3
ag4
ag5
aa(lp3474
S'9582925'
p3475
ag10
ag4
ag11
aa(lp3476
S'9454239'
p3477
ag10
ag10
ag11
aa(lp3478
S'9739273'
p3479
ag3
ag10
ag5
aa(lp3480
S'9339860'
p3481
ag10
ag4
ag11
aa(lp3482
S'9488882'
p3483
ag10
ag4
ag11
aa(lp3484
S'9905383'
p3485
ag3
ag4
ag5
aa(lp3486
S'9570708'
p3487
ag10
ag4
ag11
aa(lp3488
S'9427182'
p3489
ag3
ag4
ag5
aa(lp3490
S'9631230'
p3491
ag10
ag10
ag11
aa(lp3492
S'9438742'
p3493
ag3
ag4
ag5
aa(lp3494
S'9983309'
p3495
ag10
ag4
ag11
aa(lp3496
S'9532382'
p3497
ag10
ag4
ag11
aa(lp3498
S'9847480'
p3499
ag10
ag4
ag11
aa(lp3500
S'9917505'
p3501
ag10
ag10
ag11
aa(lp3502
S'9572192'
p3503
ag10
ag4
ag11
aa(lp3504
S'9608212'
p3505
ag3
ag4
ag5
aa(lp3506
S'9742226'
p3507
ag10
ag4
ag11
aa(lp3508
S'9049447'
p3509
ag10
ag4
ag11
aa(lp3510
S'9823421'
p3511
ag3
ag4
ag5
aa(lp3512
S'9802372'
p3513
ag3
ag4
ag5
aa(lp3514
S'9714513'
p3515
ag3
ag4
ag5
aa(lp3516
S'9503137'
p3517
ag10
ag4
ag11
aa(lp3518
S'9935643'
p3519
ag3
ag4
ag5
aa(lp3520
S'9798351'
p3521
ag10
ag4
ag11
aa(lp3522
S'9119057'
p3523
ag10
ag4
ag11
aa(lp3524
S'9855149'
p3525
ag10
ag4
ag11
aa(lp3526
S'9398970'
p3527
ag10
ag4
ag11
aa(lp3528
S'9621729'
p3529
ag10
ag10
ag11
aa(lp3530
S'9970477'
p3531
ag3
ag10
ag5
aa(lp3532
S'9871347'
p3533
ag10
ag10
ag11
aa(lp3534
S'9263153'
p3535
ag3
ag4
ag5
aa(lp3536
S'9989352'
p3537
ag10
ag4
ag11
aa(lp3538
S'9425737'
p3539
ag10
ag4
ag11
aa(lp3540
S'9153255'
p3541
ag10
ag10
ag11
aa(lp3542
S'9004669'
p3543
ag10
ag4
ag11
aa(lp3544
S'9796889'
p3545
ag3
ag4
ag5
aa(lp3546
S'9500884'
p3547
ag10
ag4
ag11
aa(lp3548
S'9691359'
p3549
ag10
ag4
ag11
aa(lp3550
S'9556110'
p3551
ag10
ag4
ag11
aa(lp3552
S'9522881'
p3553
ag10
ag4
ag11
aa(lp3554
S'9200057'
p3555
ag10
ag10
ag11
aa(lp3556
S'9777471'
p3557
ag3
ag4
ag5
aa(lp3558
S'9785978'
p3559
ag10
ag10
ag11
aa(lp3560
S'9853562'
p3561
ag3
ag4
ag5
aa(lp3562
S'9434520'
p3563
ag3
ag4
ag5
aa(lp3564
S'9029913'
p3565
ag10
ag4
ag11
aa(lp3566
S'9719999'
p3567
ag3
ag10
ag5
aa(lp3568
S'9047539'
p3569
ag10
ag4
ag11
aa(lp3570
S'9546329'
p3571
ag3
ag4
ag5
aa(lp3572
S'9988186'
p3573
ag10
ag4
ag11
aa(lp3574
S'9442105'
p3575
ag10
ag4
ag11
aa(lp3576
S'9009067'
p3577
ag10
ag4
ag11
aa(lp3578
S'9450119'
p3579
ag10
ag4
ag11
aa(lp3580
S'9209533'
p3581
ag3
ag4
ag5
aa(lp3582
S'9532148'
p3583
ag3
ag4
ag5
aa(lp3584
S'9735538'
p3585
ag10
ag4
ag11
aa(lp3586
S'9241153'
p3587
ag3
ag4
ag5
aa(lp3588
S'9203516'
p3589
ag3
ag4
ag5
aa(lp3590
S'9956170'
p3591
ag10
ag4
ag11
aa(lp3592
S'9453107'
p3593
ag10
ag4
ag11
aa(lp3594
S'9425737'
p3595
ag3
ag4
ag5
aa(lp3596
S'9043894'
p3597
ag3
ag4
ag5
aa(lp3598
S'9239515'
p3599
ag3
ag4
ag5
aa(lp3600
S'9841269'
p3601
ag10
ag4
ag11
aa(lp3602
S'9383072'
p3603
ag3
ag4
ag5
aa(lp3604
S'9418342'
p3605
ag3
ag4
ag5
aa(lp3606
S'9132486'
p3607
ag10
ag4
ag11
aa(lp3608
S'9345493'
p3609
ag10
ag4
ag11
aa(lp3610
S'9387130'
p3611
ag3
ag10
ag5
aa(lp3612
S'9907767'
p3613
ag10
ag4
ag11
aa(lp3614
S'9129226'
p3615
ag3
ag4
ag5
aa(lp3616
S'9429319'
p3617
ag3
ag4
ag5
aa(lp3618
S'9417307'
p3619
ag10
ag10
ag11
aa(lp3620
S'9410231'
p3621
ag10
ag4
ag11
aa(lp3622
S'9607213'
p3623
ag10
ag10
ag11
aa(lp3624
S'9409198'
p3625
ag10
ag10
ag11
aa(lp3626
S'9432148'
p3627
ag3
ag10
ag5
aa(lp3628
S'9622390'
p3629
ag3
ag4
ag5
aa(lp3630
S'9467124'
p3631
ag3
ag4
ag5
aa(lp3632
S'9346033'
p3633
ag10
ag4
ag11
aa(lp3634
S'9787693'
p3635
ag3
ag10
ag5
aa(lp3636
S'9688844'
p3637
ag10
ag4
ag11
aa(lp3638
S'9724475'
p3639
ag3
ag4
ag5
aa(lp3640
S'9900690'
p3641
ag3
ag4
ag5
aa(lp3642
S'9184790'
p3643
ag10
ag10
ag11
aa(lp3644
S'9418342'
p3645
ag10
ag4
ag11
aa(lp3646
S'9598640'
p3647
ag3
ag4
ag5
aa(lp3648
S'9746585'
p3649
ag3
ag4
ag5
aa(lp3650
S'9236027'
p3651
ag10
ag4
ag11
aa(lp3652
S'9622390'
p3653
ag10
ag4
ag11
aa(lp3654
S'9096881'
p3655
ag10
ag4
ag11
aa(lp3656
S'9242547'
p3657
ag10
ag4
ag11
aa(lp3658
S'9721766'
p3659
ag10
ag10
ag11
aa(lp3660
S'9197994'
p3661
ag3
ag4
ag5
aa(lp3662
S'9656390'
p3663
ag3
ag10
ag5
aa(lp3664
S'9669699'
p3665
ag10
ag4
ag11
aa(lp3666
S'9341903'
p3667
ag10
ag4
ag11
aa(lp3668
S'9290697'
p3669
ag10
ag4
ag11
aa(lp3670
S'9719890'
p3671
ag3
ag4
ag5
aa(lp3672
S'9275281'
p3673
ag3
ag4
ag5
aa(lp3674
S'9573727'
p3675
ag3
ag4
ag5
aa(lp3676
S'9653152'
p3677
ag3
ag4
ag5
aa(lp3678
S'9980704'
p3679
ag10
ag4
ag11
aa(lp3680
S'9005413'
p3681
ag3
ag4
ag5
aa(lp3682
S'9844581'
p3683
ag10
ag10
ag11
aa(lp3684
S'9280320'
p3685
ag10
ag4
ag11
aa(lp3686
S'9549818'
p3687
ag3
ag4
ag5
aa(lp3688
S'9646687'
p3689
ag3
ag4
ag5
aa(lp3690
S'9724475'
p3691
ag10
ag4
ag11
aa(lp3692
S'9340171'
p3693
ag3
ag4
ag5
aa(lp3694
S'9737043'
p3695
ag10
ag4
ag11
aa(lp3696
S'9166930'
p3697
ag10
ag4
ag11
aa(lp3698
S'9221985'
p3699
ag3
ag4
ag5
aa(lp3700
S'9709906'
p3701
ag3
ag4
ag5
aa(lp3702
S'9133694'
p3703
ag10
ag4
ag11
aa(lp3704
S'9911575'
p3705
ag3
ag4
ag5
aa(lp3706
S'9239515'
p3707
ag10
ag4
ag11
aa(lp3708
S'9025191'
p3709
ag3
ag4
ag5
aa(lp3710
S'9888561'
p3711
ag10
ag4
ag11
aa(lp3712
S'9643032'
p3713
ag3
ag4
ag5
aa(lp3714
S'9456244'
p3715
ag3
ag4
ag5
aa(lp3716
S'9158313'
p3717
ag3
ag4
ag5
aa(lp3718
S'9175571'
p3719
ag10
ag4
ag11
aa(lp3720
S'9701645'
p3721
ag10
ag4
ag11
aa(lp3722
S'9227067'
p3723
ag10
ag4
ag11
aa(lp3724
S'9085162'
p3725
ag3
ag4
ag5
aa(lp3726
S'9651397'
p3727
ag3
ag4
ag5
aa(lp3728
S'9048979'
p3729
ag10
ag4
ag11
aa(lp3730
S'9389183'
p3731
ag10
ag4
ag11
aa(lp3732
S'9051960'
p3733
ag10
ag4
ag11
aa(lp3734
S'9722173'
p3735
ag10
ag4
ag11
aa(lp3736
S'9261372'
p3737
ag10
ag4
ag11
aa(lp3738
S'9528034'
p3739
ag3
ag4
ag5
aa(lp3740
S'9554126'
p3741
ag3
ag4
ag5
aa(lp3742
S'9004175'
p3743
ag3
ag4
ag5
aa(lp3744
S'9484468'
p3745
ag10
ag10
ag11
aa(lp3746
S'9155943'
p3747
ag10
ag4
ag11
aa(lp3748
S'9438742'
p3749
ag10
ag4
ag11
aa(lp3750
S'9363262'
p3751
ag10
ag4
ag11
aa(lp3752
S'9136484'
p3753
ag10
ag4
ag11
aa(lp3754
S'9258864'
p3755
ag3
ag10
ag5
aa(lp3756
S'9258563'
p3757
ag10
ag4
ag11
aa(lp3758
S'9906491'
p3759
ag3
ag4
ag5
aa(lp3760
S'9788507'
p3761
ag3
ag10
ag5
aa(lp3762
S'9415301'
p3763
ag3
ag4
ag5
aa(lp3764
S'9280204'
p3765
ag3
ag4
ag5
aa(lp3766
S'9564189'
p3767
ag10
ag4
ag11
aa(lp3768
S'9269056'
p3769
ag3
ag4
ag5
aa(lp3770
S'9109950'
p3771
ag3
ag4
ag5
aa(lp3772
S'9670198'
p3773
ag10
ag4
ag11
aa(lp3774
S'9846831'
p3775
ag3
ag4
ag5
aa(lp3776
S'9297239'
p3777
ag3
ag4
ag5
aa(lp3778
S'9115859'
p3779
ag10
ag4
ag11
aa(lp3780
S'9258662'
p3781
ag3
ag4
ag5
aa(lp3782
S'9274208'
p3783
ag10
ag4
ag11
aa(lp3784
S'9373076'
p3785
ag10
ag4
ag11
aa(lp3786
S'9091623'
p3787
ag10
ag4
ag11
aa(lp3788
S'9466873'
p3789
ag3
ag4
ag5
aa(lp3790
S'9011949'
p3791
ag10
ag4
ag11
aa(lp3792
S'9116057'
p3793
ag3
ag10
ag5
aa(lp3794
S'9628393'
p3795
ag10
ag10
ag11
aa(lp3796
S'9458107'
p3797
ag10
ag4
ag11
aa(lp3798
S'9397088'
p3799
ag3
ag10
ag5
aa(lp3800
S'9566632'
p3801
ag10
ag4
ag11
aa(lp3802
S'9081879'
p3803
ag10
ag4
ag11
aa(lp3804
S'9513374'
p3805
ag10
ag4
ag11
aa(lp3806
S'9001897'
p3807
ag3
ag10
ag5
aa(lp3808
S'9780275'
p3809
ag3
ag10
ag5
aa(lp3810
S'9201052'
p3811
ag3
ag10
ag5
aa(lp3812
S'9254853'
p3813
ag3
ag10
ag5
aa(lp3814
S'9734247'
p3815
ag10
ag4
ag11
aa(lp3816
S'9665973'
p3817
ag10
ag4
ag11
aa(lp3818
S'9569175'
p3819
ag3
ag4
ag5
aa(lp3820
S'9357301'
p3821
ag3
ag4
ag5
aa(lp3822
S'9551668'
p3823
ag10
ag4
ag11
aa(lp3824
S'9624955'
p3825
ag10
ag4
ag11
aa(lp3826
S'9742313'
p3827
ag10
ag4
ag11
aa(lp3828
S'9391967'
p3829
ag10
ag4
ag11
aa(lp3830
S'9332414'
p3831
ag3
ag4
ag5
aa(lp3832
S'9122643'
p3833
ag10
ag4
ag11
aa(lp3834
S'9771115'
p3835
ag10
ag4
ag11
aa(lp3836
S'9980274'
p3837
ag10
ag4
ag11
aa(lp3838
S'9849372'
p3839
ag3
ag10
ag5
aa(lp3840
S'9482887'
p3841
ag10
ag4
ag11
aa(lp3842
S'9329346'
p3843
ag10
ag4
ag11
aa(lp3844
S'9561374'
p3845
ag10
ag4
ag11
aa(lp3846
S'9471214'
p3847
ag10
ag4
ag11
aa(lp3848
S'9397976'
p3849
ag10
ag4
ag11
aa(lp3850
S'9723032'
p3851
ag3
ag4
ag5
aa(lp3852
S'9509294'
p3853
ag3
ag10
ag5
aa(lp3854
S'9824274'
p3855
ag10
ag10
ag11
aa(lp3856
S'9907909'
p3857
ag3
ag10
ag5
aa(lp3858
S'9833835'
p3859
ag3
ag10
ag5
aa(lp3860
S'9168944'
p3861
ag10
ag4
ag11
aa(lp3862
S'9327385'
p3863
ag3
ag4
ag5
aa(lp3864
S'9280243'
p3865
ag10
ag4
ag11
aa(lp3866
S'9172013'
p3867
ag10
ag4
ag11
aa(lp3868
S'9752412'
p3869
ag3
ag4
ag5
aa(lp3870
S'9510418'
p3871
ag3
ag10
ag5
aa(lp3872
S'9581241'
p3873
ag3
ag4
ag5
aa(lp3874
S'9629158'
p3875
ag10
ag4
ag11
aa(lp3876
S'9889793'
p3877
ag10
ag4
ag11
aa(lp3878
S'9167589'
p3879
ag3
ag4
ag5
aa(lp3880
S'9322401'
p3881
ag10
ag4
ag11
aa(lp3882
S'9224590'
p3883
ag10
ag4
ag11
aa(lp3884
S'9452359'
p3885
ag3
ag4
ag5
aa(lp3886
S'9244516'
p3887
ag10
ag10
ag11
aa(lp3888
S'9440005'
p3889
ag10
ag4
ag11
aa(lp3890
S'9585474'
p3891
ag3
ag4
ag5
aa(lp3892
S'9670897'
p3893
ag3
ag4
ag5
aa(lp3894
S'9549644'
p3895
ag3
ag4
ag5
aa(lp3896
S'9876792'
p3897
ag10
ag10
ag11
aa(lp3898
S'9912315'
p3899
ag10
ag4
ag11
aa(lp3900
S'9021195'
p3901
ag3
ag4
ag5
aa(lp3902
S'9738547'
p3903
ag3
ag4
ag5
aa(lp3904
S'9892736'
p3905
ag10
ag4
ag11
aa(lp3906
S'9236557'
p3907
ag10
ag4
ag11
aa(lp3908
S'9794140'
p3909
ag3
ag4
ag5
aa(lp3910
S'9389965'
p3911
ag3
ag4
ag5
aa(lp3912
S'9531657'
p3913
ag10
ag4
ag11
aa(lp3914
S'9787576'
p3915
ag3
ag4
ag5
aa(lp3916
S'9435600'
p3917
ag10
ag4
ag11
aa(lp3918
S'9517833'
p3919
ag3
ag4
ag5
aa(lp3920
S'9155449'
p3921
ag10
ag4
ag11
aa(lp3922
S'9958736'
p3923
ag3
ag4
ag5
aa(lp3924
S'9500884'
p3925
ag3
ag4
ag5
aa(lp3926
S'9456105'
p3927
ag3
ag4
ag5
aa(lp3928
S'9717977'
p3929
ag3
ag10
ag5
aa(lp3930
S'9703829'
p3931
ag3
ag4
ag5
aa(lp3932
S'9290819'
p3933
ag10
ag4
ag11
aa(lp3934
S'9341449'
p3935
ag10
ag10
ag11
aa(lp3936
S'9858747'
p3937
ag3
ag4
ag5
aa(lp3938
S'9444883'
p3939
ag3
ag4
ag5
aa(lp3940
S'9720535'
p3941
ag10
ag4
ag11
aa(lp3942
S'9888738'
p3943
ag3
ag4
ag5
aa(lp3944
S'9537182'
p3945
ag3
ag4
ag5
aa(lp3946
S'9465265'
p3947
ag3
ag4
ag5
aa(lp3948
S'9391051'
p3949
ag10
ag4
ag11
aa(lp3950
S'9119057'
p3951
ag3
ag4
ag5
aa(lp3952
S'9331465'
p3953
ag3
ag10
ag5
aa(lp3954
S'9068742'
p3955
ag10
ag10
ag11
aa(lp3956
S'9043446'
p3957
ag3
ag4
ag5
aa(lp3958
S'9645577'
p3959
ag3
ag4
ag5
aa(lp3960
S'9415847'
p3961
ag3
ag4
ag5
aa(lp3962
S'9445880'
p3963
ag10
ag4
ag11
aa(lp3964
S'9258662'
p3965
ag10
ag4
ag11
aa(lp3966
S'9953596'
p3967
ag3
ag4
ag5
aa(lp3968
S'9241424'
p3969
ag3
ag4
ag5
aa(lp3970
S'9569243'
p3971
ag10
ag4
ag11
aa(lp3972
S'9980274'
p3973
ag3
ag4
ag5
aa(lp3974
S'9129011'
p3975
ag3
ag4
ag5
aa(lp3976
S'9119805'
p3977
ag10
ag4
ag11
aa(lp3978
S'9798629'
p3979
ag10
ag4
ag11
aa(lp3980
S'9789297'
p3981
ag10
ag4
ag11
aa(lp3982
S'9330369'
p3983
ag3
ag4
ag5
aa(lp3984
S'9092643'
p3985
ag3
ag4
ag5
aa(lp3986
S'9329159'
p3987
ag3
ag10
ag5
aa(lp3988
S'9617748'
p3989
ag10
ag4
ag11
aa(lp3990
S'9208283'
p3991
ag3
ag4
ag5
aa(lp3992
S'9794106'
p3993
ag3
ag4
ag5
aa(lp3994
S'9573727'
p3995
ag10
ag4
ag11
aa(lp3996
S'9595607'
p3997
ag10
ag4
ag11
aa(lp3998
S'9444102'
p3999
ag10
ag4
ag11
aa(lp4000
S'9108945'
p4001
ag10
ag4
ag11
aa(lp4002
S'9694101'
p4003
ag10
ag4
ag11
aa(lp4004
S'9390263'
p4005
ag3
ag4
ag5
aa(lp4006
S'9143547'
p4007
ag3
ag4
ag5
aa(lp4008
S'9088396'
p4009
ag10
ag4
ag11
aa(lp4010
S'9409941'
p4011
ag3
ag4
ag5
aa(lp4012
S'9169022'
p4013
ag10
ag10
ag11
aa(lp4014
S'9165970'
p4015
ag3
ag4
ag5
aa(lp4016
S'9634422'
p4017
ag10
ag4
ag11
aa(lp4018
S'9465265'
p4019
ag10
ag4
ag11
aa(lp4020
S'9510343'
p4021
ag10
ag4
ag11
aa(lp4022
S'9618924'
p4023
ag3
ag4
ag5
aa(lp4024
S'9128923'
p4025
ag3
ag4
ag5
aa(lp4026
S'9115742'
p4027
ag3
ag4
ag5
aa(lp4028
S'9854226'
p4029
ag3
ag4
ag5
aa(lp4030
S'9507859'
p4031
ag3
ag4
ag5
aa(lp4032
S'9912228'
p4033
ag3
ag4
ag5
aa(lp4034
S'9953596'
p4035
ag10
ag4
ag11
aa(lp4036
S'9754907'
p4037
ag10
ag4
ag11
aa(lp4038
S'9836547'
p4039
ag10
ag4
ag11
aa(lp4040
S'9200458'
p4041
ag10
ag4
ag11
aa(lp4042
S'9018489'
p4043
ag10
ag4
ag11
aa(lp4044
S'9181583'
p4045
ag3
ag4
ag5
aa(lp4046
S'9746416'
p4047
ag3
ag10
ag5
aa(lp4048
S'9088142'
p4049
ag10
ag4
ag11
aa(lp4050
S'9360243'
p4051
ag10
ag4
ag11
aa(lp4052
S'9619662'
p4053
ag3
ag10
ag5
aa(lp4054
S'9731254'
p4055
ag10
ag4
ag11
aa(lp4056
S'9416700'
p4057
ag10
ag4
ag11
aa(lp4058
S'9690910'
p4059
ag10
ag4
ag11
aa(lp4060
S'9077395'
p4061
ag3
ag4
ag5
aa(lp4062
S'9715480'
p4063
ag3
ag4
ag5
aa(lp4064
S'9727418'
p4065
ag10
ag4
ag11
aa(lp4066
S'9999865'
p4067
ag3
ag10
ag5
aa(lp4068
S'9715892'
p4069
ag3
ag4
ag5
aa(lp4070
S'9346033'
p4071
ag3
ag10
ag5
aa(lp4072
S'9244698'
p4073
ag10
ag4
ag11
aa(lp4074
S'9268052'
p4075
ag3
ag4
ag5
aa(lp4076
S'9187064'
p4077
ag3
ag4
ag5
aa(lp4078
S'9197064'
p4079
ag3
ag4
ag5
aa(lp4080
S'9399698'
p4081
ag10
ag4
ag11
aa(lp4082
S'9372030'
p4083
ag10
ag4
ag11
aa(lp4084
S'9047539'
p4085
ag3
ag4
ag5
aa(lp4086
S'9323060'
p4087
ag3
ag4
ag5
aa(lp4088
S'9895022'
p4089
ag3
ag4
ag5
aa(lp4090
S'9621160'
p4091
ag10
ag4
ag11
aa(lp4092
S'9297239'
p4093
ag10
ag4
ag11
aa(lp4094
S'9406109'
p4095
ag3
ag4
ag5
aa(lp4096
S'9906664'
p4097
ag10
ag4
ag11
aa(lp4098
S'9999865'
p4099
ag10
ag4
ag11
aa(lp4100
S'9637641'
p4101
ag10
ag4
ag11
aa(lp4102
S'9713153'
p4103
ag10
ag4
ag11
aa(lp4104
S'9745242'
p4105
ag10
ag4
ag11
aa(lp4106
S'9125977'
p4107
ag3
ag10
ag5
aa(lp4108
S'9910268'
p4109
ag10
ag4
ag11
aa(lp4110
S'9646610'
p4111
ag10
ag4
ag11
aa(lp4112
S'9451114'
p4113
ag3
ag10
ag5
aa(lp4114
S'9256066'
p4115
ag10
ag4
ag11
aa(lp4116
S'9983798'
p4117
ag3
ag4
ag5
aa(lp4118
S'9962045'
p4119
ag3
ag4
ag5
aa(lp4120
S'9613159'
p4121
ag10
ag4
ag11
aa(lp4122
S'9050299'
p4123
ag10
ag4
ag11
aa(lp4124
S'9364362'
p4125
ag3
ag4
ag5
aa(lp4126
S'9044788'
p4127
ag3
ag10
ag5
aa(lp4128
S'9930368'
p4129
ag10
ag4
ag11
aa(lp4130
S'9761961'
p4131
ag10
ag4
ag11
aa(lp4132
S'9500410'
p4133
ag3
ag4
ag5
aa(lp4134
S'9854269'
p4135
ag3
ag4
ag5
aa(lp4136
S'9739300'
p4137
ag3
ag4
ag5
aa(lp4138
S'9488360'
p4139
ag10
ag4
ag11
aa(lp4140
S'9925594'
p4141
ag10
ag10
ag11
aa(lp4142
S'9904667'
p4143
ag3
ag4
ag5
aa(lp4144
S'9597680'
p4145
ag3
ag4
ag5
aa(lp4146
S'9743577'
p4147
ag3
ag4
ag5
aa(lp4148
S'9855149'
p4149
ag3
ag4
ag5
aa(lp4150
S'9793131'
p4151
ag3
ag4
ag5
aa(lp4152
S'9621393'
p4153
ag3
ag4
ag5
aa(lp4154
S'9775753'
p4155
ag10
ag4
ag11
aa(lp4156
S'9871731'
p4157
ag3
ag4
ag5
aa(lp4158
S'9524362'
p4159
ag3
ag4
ag5
aa(lp4160
S'9582487'
p4161
ag10
ag4
ag11
aa(lp4162
S'9698137'
p4163
ag3
ag4
ag5
aa(lp4164
S'9063934'
p4165
ag3
ag4
ag5
aa(lp4166
S'9971531'
p4167
ag3
ag4
ag5
aa(lp4168
S'9697466'
p4169
ag10
ag10
ag11
aa(lp4170
S'9923099'
p4171
ag10
ag10
ag11
aa(lp4172
S'9376430'
p4173
ag10
ag4
ag11
aa(lp4174
S'9029415'
p4175
ag10
ag4
ag11
aa(lp4176
S'9658152'
p4177
ag10
ag10
ag11
aa(lp4178
S'9805321'
p4179
ag3
ag4
ag5
aa(lp4180
S'9117692'
p4181
ag3
ag4
ag5
aa(lp4182
S'9096881'
p4183
ag3
ag4
ag5
aa(lp4184
S'9909790'
p4185
ag3
ag4
ag5
aa(lp4186
S'9454100'
p4187
ag3
ag4
ag5
aa(lp4188
S'9165970'
p4189
ag10
ag4
ag11
aa(lp4190
S'9224061'
p4191
ag3
ag4
ag5
aa(lp4192
S'9765419'
p4193
ag10
ag4
ag11
aa(lp4194
S'9322375'
p4195
ag10
ag4
ag11
aa(lp4196
S'9099440'
p4197
ag3
ag4
ag5
aa(lp4198
S'9534036'
p4199
ag10
ag4
ag11
aa(lp4200
S'9834806'
p4201
ag10
ag4
ag11
aa(lp4202
S'9802372'
p4203
ag10
ag4
ag11
aa(lp4204
S'9407018'
p4205
ag10
ag10
ag11
aa(lp4206
S'9744568'
p4207
ag3
ag4
ag5
aa(lp4208
S'9036287'
p4209
ag3
ag10
ag5
aa(lp4210
S'9480338'
p4211
ag10
ag10
ag11
aa(lp4212
S'9391967'
p4213
ag3
ag10
ag5
aa(lp4214
S'9617608'
p4215
ag10
ag4
ag11
aa(lp4216
S'9615630'
p4217
ag3
ag4
ag5
aa(lp4218
S'9322437'
p4219
ag10
ag4
ag11
aa(lp4220
S'9966825'
p4221
ag10
ag4
ag11
aa(lp4222
S'9747379'
p4223
ag3
ag4
ag5
aa(lp4224
S'9973722'
p4225
ag3
ag4
ag5
aa(lp4226
S'9456266'
p4227
ag10
ag4
ag11
aa(lp4228
S'9383254'
p4229
ag3
ag10
ag5
aa(lp4230
S'9091337'
p4231
ag10
ag4
ag11
aa(lp4232
S'9608703'
p4233
ag10
ag4
ag11
aa(lp4234
S'9177091'
p4235
ag10
ag4
ag11
aa(lp4236
S'9762412'
p4237
ag3
ag4
ag5
aa(lp4238
S'9142030'
p4239
ag10
ag4
ag11
aa(lp4240
S'9171714'
p4241
ag3
ag4
ag5
aa(lp4242
S'9977706'
p4243
ag10
ag4
ag11
aa(lp4244
S'9650705'
p4245
ag10
ag4
ag11
aa(lp4246
S'9594608'
p4247
ag10
ag10
ag11
aa(lp4248
S'9746894'
p4249
ag3
ag4
ag5
aa(lp4250
S'9576182'
p4251
ag3
ag10
ag5
aa(lp4252
S'9902772'
p4253
ag10
ag4
ag11
aa(lp4254
S'9010308'
p4255
ag10
ag4
ag11
aa(lp4256
S'9039972'
p4257
ag3
ag4
ag5
aa(lp4258
S'9211751'
p4259
ag3
ag4
ag5
aa(lp4260
S'9153255'
p4261
ag3
ag4
ag5
aa(lp4262
S'9796299'
p4263
ag10
ag4
ag11
aa(lp4264
S'9955666'
p4265
ag10
ag4
ag11
aa(lp4266
S'9924324'
p4267
ag3
ag4
ag5
aa(lp4268
S'9692417'
p4269
ag3
ag4
ag5
aa(lp4270
S'9814464'
p4271
ag10
ag4
ag11
aa(lp4272
S'9463400'
p4273
ag3
ag4
ag5
aa(lp4274
S'9798787'
p4275
ag3
ag4
ag5
aa(lp4276
S'9223285'
p4277
ag3
ag4
ag5
aa(lp4278
S'9046206'
p4279
ag10
ag10
ag11
aa(lp4280
S'9791525'
p4281
ag10
ag4
ag11
aa(lp4282
S'9304726'
p4283
ag10
ag4
ag11
aa(lp4284
S'9962029'
p4285
ag3
ag4
ag5
aa(lp4286
S'9811940'
p4287
ag3
ag4
ag5
aa(lp4288
S'9301222'
p4289
ag3
ag4
ag5
aa(lp4290
S'9480533'
p4291
ag10
ag4
ag11
aa(lp4292
S'9372977'
p4293
ag3
ag4
ag5
aa(lp4294
S'9841838'
p4295
ag3
ag10
ag5
aa(lp4296
S'9369375'
p4297
ag10
ag4
ag11
aa(lp4298
S'9028904'
p4299
ag10
ag10
ag11
aa(lp4300
S'9955443'
p4301
ag3
ag4
ag5
aa(lp4302
S'9528158'
p4303
ag10
ag4
ag11
aa(lp4304
S'9052978'
p4305
ag10
ag4
ag11
aa(lp4306
S'9013634'
p4307
ag3
ag4
ag5
aa(lp4308
S'9492362'
p4309
ag10
ag4
ag11
aa(lp4310
S'9808600'
p4311
ag3
ag10
ag5
aa(lp4312
S'9958526'
p4313
ag10
ag4
ag11
aa(lp4314
S'9503361'
p4315
ag3
ag4
ag5
aa(lp4316
S'9670515'
p4317
ag10
ag4
ag11
aa(lp4318
S'9074232'
p4319
ag10
ag4
ag11
aa(lp4320
S'9355390'
p4321
ag10
ag4
ag11
aa(lp4322
S'9967815'
p4323
ag10
ag4
ag11
aa(lp4324
S'9518910'
p4325
ag3
ag4
ag5
aa(lp4326
S'9595550'
p4327
ag10
ag4
ag11
aa(lp4328
S'9156214'
p4329
ag10
ag10
ag11
aa(lp4330
S'9658663'
p4331
ag10
ag4
ag11
aa(lp4332
S'9798668'
p4333
ag3
ag4
ag5
aa(lp4334
S'9646917'
p4335
ag10
ag4
ag11
aa(lp4336
S'9551114'
p4337
ag10
ag4
ag11
aa(lp4338
S'9455100'
p4339
ag3
ag4
ag5
aa(lp4340
S'9162770'
p4341
ag10
ag4
ag11
aa(lp4342
S'9579220'
p4343
ag10
ag4
ag11
aa(lp4344
S'9996284'
p4345
ag3
ag4
ag5
aa(lp4346
S'9503429'
p4347
ag10
ag4
ag11
aa(lp4348
S'9696897'
p4349
ag10
ag4
ag11
aa(lp4350
S'9015798'
p4351
ag3
ag4
ag5
aa(lp4352
S'9585175'
p4353
ag3
ag10
ag5
aa(lp4354
S'9486466'
p4355
ag3
ag10
ag5
aa(lp4356
S'9186589'
p4357
ag3
ag4
ag5
aa(lp4358
S'9900967'
p4359
ag10
ag4
ag11
aa(lp4360
S'9718951'
p4361
ag10
ag4
ag11
aa(lp4362
S'9370237'
p4363
ag3
ag4
ag5
aa(lp4364
S'9873241'
p4365
ag10
ag4
ag11
aa(lp4366
S'9230363'
p4367
ag10
ag4
ag11
aa(lp4368
S'9589006'
p4369
ag3
ag10
ag5
aa(lp4370
S'9179589'
p4371
ag10
ag4
ag11
aa(lp4372
S'9949194'
p4373
ag3
ag4
ag5
aa(lp4374
S'9485448'
p4375
ag3
ag4
ag5
aa(lp4376
S'9225871'
p4377
ag10
ag4
ag11
aa(lp4378
S'9076127'
p4379
ag3
ag4
ag5
aa(lp4380
S'9258051'
p4381
ag10
ag4
ag11
aa(lp4382
S'9022703'
p4383
ag3
ag4
ag5
aa(lp4384
S'9162498'
p4385
ag3
ag4
ag5
aa(lp4386
S'9681294'
p4387
ag3
ag4
ag5
aa(lp4388
S'9213753'
p4389
ag10
ag4
ag11
aa(lp4390
S'9173950'
p4391
ag3
ag10
ag5
aa(lp4392
S'9878786'
p4393
ag10
ag4
ag11
aa(lp4394
S'9916274'
p4395
ag10
ag4
ag11
aa(lp4396
S'9730488'
p4397
ag3
ag4
ag5
aa(lp4398
S'9556963'
p4399
ag10
ag4
ag11
aa(lp4400
S'9703469'
p4401
ag3
ag4
ag5
aa(lp4402
S'9475284'
p4403
ag3
ag4
ag5
aa(lp4404
S'9224866'
p4405
ag10
ag4
ag11
aa(lp4406
S'9226514'
p4407
ag10
ag4
ag11
aa(lp4408
S'9340139'
p4409
ag3
ag4
ag5
aa(lp4410
S'9598675'
p4411
ag10
ag4
ag11
aa(lp4412
S'9463326'
p4413
ag3
ag4
ag5
aa(lp4414
S'9623707'
p4415
ag3
ag4
ag5
aa(lp4416
S'9119806'
p4417
ag10
ag4
ag11
aa(lp4418
S'9836062'
p4419
ag10
ag4
ag11
aa(lp4420
S'9173434'
p4421
ag10
ag4
ag11
aa(lp4422
S'9719391'
p4423
ag3
ag4
ag5
aa(lp4424
S'9082901'
p4425
ag10
ag4
ag11
aa(lp4426
S'9862321'
p4427
ag10
ag4
ag11
aa(lp4428
S'9762713'
p4429
ag3
ag4
ag5
aa(lp4430
S'9858252'
p4431
ag10
ag4
ag11
aa(lp4432
S'9410231'
p4433
ag3
ag4
ag5
aa(lp4434
S'9753414'
p4435
ag3
ag4
ag5
aa(lp4436
S'9333085'
p4437
ag3
ag4
ag5
aa(lp4438
S'9553907'
p4439
ag3
ag4
ag5
aa(lp4440
S'9540406'
p4441
ag3
ag4
ag5
aa(lp4442
S'9430234'
p4443
ag3
ag4
ag5
aa(lp4444
S'9844270'
p4445
ag3
ag4
ag5
aa(lp4446
S'9912315'
p4447
ag3
ag4
ag5
aa(lp4448
S'9800893'
p4449
ag10
ag4
ag11
aa(lp4450
S'9490756'
p4451
ag3
ag4
ag5
aa(lp4452
S'9333574'
p4453
ag10
ag4
ag11
aa(lp4454
S'9295533'
p4455
ag3
ag4
ag5
aa(lp4456
S'9126497'
p4457
ag3
ag10
ag5
aa(lp4458
S'9805639'
p4459
ag3
ag4
ag5
aa(lp4460
S'9692923'
p4461
ag10
ag4
ag11
aa(lp4462
S'9290079'
p4463
ag3
ag4
ag5
aa(lp4464
S'9748094'
p4465
ag3
ag4
ag5
aa(lp4466
S'9714513'
p4467
ag10
ag4
ag11
aa(lp4468
S'9082901'
p4469
ag3
ag4
ag5
aa(lp4470
S'9481542'
p4471
ag10
ag4
ag11
aa(lp4472
S'9001400'
p4473
ag10
ag4
ag11
aa(lp4474
S'9135752'
p4475
ag3
ag10
ag5
aa(lp4476
S'9063015'
p4477
ag3
ag4
ag5
aa(lp4478
S'9837324'
p4479
ag10
ag4
ag11
aa(lp4480
S'9942867'
p4481
ag3
ag4
ag5
aa(lp4482
S'9568130'
p4483
ag10
ag4
ag11
aa(lp4484
S'9171457'
p4485
ag3
ag4
ag5
aa(lp4486
S'9572632'
p4487
ag10
ag4
ag11
aa(lp4488
S'9544159'
p4489
ag10
ag4
ag11
aa(lp4490
S'9805894'
p4491
ag10
ag4
ag11
aa(lp4492
S'9543086'
p4493
ag3
ag4
ag5
aa(lp4494
S'9479978'
p4495
ag10
ag10
ag11
aa(lp4496
S'9460287'
p4497
ag3
ag4
ag5
aa(lp4498
S'9393241'
p4499
ag10
ag4
ag11
aa(lp4500
S'9933085'
p4501
ag3
ag4
ag5
aa(lp4502
S'9837987'
p4503
ag10
ag4
ag11
aa(lp4504
S'9417104'
p4505
ag10
ag4
ag11
aa(lp4506
S'9763603'
p4507
ag10
ag10
ag11
aa(lp4508
S'9412037'
p4509
ag10
ag10
ag11
aa(lp4510
S'9048308'
p4511
ag10
ag4
ag11
aa(lp4512
S'9129270'
p4513
ag3
ag4
ag5
aa(lp4514
S'9780165'
p4515
ag10
ag4
ag11
aa(lp4516
S'9601155'
p4517
ag3
ag4
ag5
aa(lp4518
S'9300088'
p4519
ag3
ag4
ag5
aa(lp4520
S'9751381'
p4521
ag3
ag10
ag5
aa(lp4522
S'9546108'
p4523
ag10
ag4
ag11
aa(lp4524
S'9993833'
p4525
ag10
ag4
ag11
aa(lp4526
S'9020856'
p4527
ag3
ag4
ag5
aa(lp4528
S'9692368'
p4529
ag3
ag4
ag5
aa(lp4530
S'9308348'
p4531
ag3
ag4
ag5
aa(lp4532
S'9049895'
p4533
ag10
ag4
ag11
aa(lp4534
S'9566181'
p4535
ag3
ag4
ag5
aa(lp4536
S'9621729'
p4537
ag3
ag4
ag5
aa(lp4538
S'9879069'
p4539
ag3
ag4
ag5
aa(lp4540
S'9581712'
p4541
ag3
ag4
ag5
aa(lp4542
S'9780584'
p4543
ag10
ag4
ag11
aa(lp4544
S'9679111'
p4545
ag10
ag4
ag11
aa(lp4546
S'9081362'
p4547
ag3
ag4
ag5
aa(lp4548
S'9307109'
p4549
ag10
ag4
ag11
aa(lp4550
S'9662427'
p4551
ag10
ag4
ag11
aa(lp4552
S'9290211'
p4553
ag10
ag4
ag11
aa(lp4554
S'9795669'
p4555
ag10
ag4
ag11
aa(lp4556
S'9137709'
p4557
ag10
ag4
ag11
aa(lp4558
S'9499341'
p4559
ag3
ag10
ag5
aa(lp4560
S'9323079'
p4561
ag3
ag4
ag5
aa(lp4562
S'9405118'
p4563
ag3
ag4
ag5
aa(lp4564
S'9583746'
p4565
ag3
ag4
ag5
aa(lp4566
S'9584716'
p4567
ag10
ag4
ag11
aa(lp4568
S'9668142'
p4569
ag10
ag4
ag11
aa(lp4570
S'9662427'
p4571
ag3
ag10
ag5
aa(lp4572
S'9391051'
p4573
ag3
ag4
ag5
aa(lp4574
S'9011115'
p4575
ag3
ag4
ag5
aa(lp4576
S'9031141'
p4577
ag3
ag10
ag5
aa(lp4578
S'9368408'
p4579
ag10
ag10
ag11
aa(lp4580
S'9798131'
p4581
ag10
ag4
ag11
aa(lp4582
S'9461110'
p4583
ag3
ag4
ag5
aa(lp4584
S'9764947'
p4585
ag10
ag4
ag11
aa(lp4586
S'9919548'
p4587
ag3
ag4
ag5
aa(lp4588
S'9850845'
p4589
ag3
ag4
ag5
aa(lp4590
S'9630153'
p4591
ag10
ag4
ag11
aa(lp4592
S'9268233'
p4593
ag10
ag10
ag11
aa(lp4594
S'9312081'
p4595
ag10
ag4
ag11
aa(lp4596
S'9156694'
p4597
ag3
ag4
ag5
aa(lp4598
S'9545340'
p4599
ag3
ag10
ag5
aa(lp4600
S'9609632'
p4601
ag10
ag4
ag11
aa(lp4602
S'9668126'
p4603
ag10
ag4
ag11
aa(lp4604
S'9533664'
p4605
ag10
ag4
ag11
aa(lp4606
S'9516833'
p4607
ag10
ag10
ag11
aa(lp4608
S'9817618'
p4609
ag3
ag4
ag5
aa(lp4610
S'9871786'
p4611
ag3
ag4
ag5
aa(lp4612
S'9553908'
p4613
ag3
ag4
ag5
aa(lp4614
S'9658923'
p4615
ag10
ag4
ag11
aa(lp4616
S'9754338'
p4617
ag3
ag4
ag5
aa(lp4618
S'9739050'
p4619
ag10
ag4
ag11
aa(lp4620
S'9514379'
p4621
ag3
ag4
ag5
aa(lp4622
S'9786191'
p4623
ag3
ag4
ag5
aa(lp4624
S'9036948'
p4625
ag3
ag4
ag5
aa(lp4626
S'9460076'
p4627
ag3
ag4
ag5
aa(lp4628
S'9509373'
p4629
ag10
ag4
ag11
aa(lp4630
S'9441307'
p4631
ag10
ag4
ag11
aa(lp4632
S'9242544'
p4633
ag3
ag4
ag5
aa(lp4634
S'9717450'
p4635
ag3
ag4
ag5
aa(lp4636
S'9607954'
p4637
ag3
ag4
ag5
aa(lp4638
S'9448563'
p4639
ag3
ag4
ag5
aa(lp4640
S'9444196'
p4641
ag10
ag10
ag11
aa(lp4642
S'9932750'
p4643
ag3
ag4
ag5
aa(lp4644
S'9803881'
p4645
ag10
ag4
ag11
aa(lp4646
S'9486408'
p4647
ag10
ag4
ag11
aa(lp4648
S'9962232'
p4649
ag3
ag10
ag5
aa(lp4650
S'9590002'
p4651
ag10
ag4
ag11
aa(lp4652
S'9217260'
p4653
ag10
ag4
ag11
aa(lp4654
S'9411066'
p4655
ag3
ag4
ag5
aa(lp4656
S'9606177'
p4657
ag10
ag10
ag11
aa(lp4658
S'9764936'
p4659
ag10
ag4
ag11
aa(lp4660
S'9962045'
p4661
ag10
ag4
ag11
aa(lp4662
S'9443135'
p4663
ag3
ag4
ag5
aa(lp4664
S'9666974'
p4665
ag10
ag4
ag11
aa(lp4666
S'9066155'
p4667
ag3
ag4
ag5
aa(lp4668
S'9776525'
p4669
ag10
ag4
ag11
aa(lp4670
S'9417006'
p4671
ag3
ag4
ag5
aa(lp4672
S'9008561'
p4673
ag3
ag4
ag5
aa(lp4674
S'9951821'
p4675
ag3
ag4
ag5
aa(lp4676
S'9873057'
p4677
ag3
ag4
ag5
aa(lp4678
S'9573975'
p4679
ag3
ag4
ag5
aa(lp4680
S'9253884'
p4681
ag10
ag4
ag11
aa(lp4682
S'9089627'
p4683
ag10
ag4
ag11
aa(lp4684
S'9861699'
p4685
ag10
ag10
ag11
aa(lp4686
S'9258526'
p4687
ag3
ag4
ag5
aa(lp4688
S'9491446'
p4689
ag3
ag4
ag5
aa(lp4690
S'9579246'
p4691
ag3
ag4
ag5
aa(lp4692
S'9967932'
p4693
ag10
ag4
ag11
aa(lp4694
S'9805234'
p4695
ag3
ag4
ag5
aa(lp4696
S'9318509'
p4697
ag10
ag4
ag11
aa(lp4698
S'9373065'
p4699
ag3
ag4
ag5
aa(lp4700
S'9881827'
p4701
ag10
ag4
ag11
aa(lp4702
S'9156307'
p4703
ag3
ag4
ag5
aa(lp4704
S'9024409'
p4705
ag3
ag4
ag5
aa(lp4706
S'9800677'
p4707
ag10
ag4
ag11
aa(lp4708
S'9432102'
p4709
ag10
ag4
ag11
aa(lp4710
S'9595607'
p4711
ag3
ag4
ag5
aa(lp4712
S'9568696'
p4713
ag10
ag4
ag11
aa(lp4714
S'9543086'
p4715
ag10
ag4
ag11
aa(lp4716
S'9164467'
p4717
ag3
ag4
ag5
aa(lp4718
S'9688338'
p4719
ag3
ag4
ag5
aa(lp4720
S'9258864'
p4721
ag10
ag10
ag11
aa(lp4722
S'9902576'
p4723
ag3
ag10
ag5
aa(lp4724
S'9361302'
p4725
ag10
ag4
ag11
aa(lp4726
S'9016886'
p4727
ag3
ag4
ag5
aa(lp4728
S'9225984'
p4729
ag3
ag10
ag5
aa(lp4730
S'9204055'
p4731
ag3
ag10
ag5
aa(lp4732
S'9222068'
p4733
ag10
ag4
ag11
aa(lp4734
S'9806459'
p4735
ag10
ag4
ag11
aa(lp4736
S'9572632'
p4737
ag3
ag4
ag5
aa(lp4738
S'9874344'
p4739
ag10
ag4
ag11
aa(lp4740
S'9444102'
p4741
ag3
ag4
ag5
aa(lp4742
S'9109448'
p4743
ag3
ag4
ag5
aa(lp4744
S'9244537'
p4745
ag3
ag4
ag5
aa(lp4746
S'9359987'
p4747
ag10
ag4
ag11
aa(lp4748
S'9552835'
p4749
ag10
ag4
ag11
aa(lp4750
S'9090740'
p4751
ag10
ag4
ag11
aa(lp4752
S'9083378'
p4753
ag10
ag4
ag11
aa(lp4754
S'9369259'
p4755
ag3
ag4
ag5
aa(lp4756
S'9584176'
p4757
ag3
ag4
ag5
aa(lp4758
S'9272198'
p4759
ag3
ag4
ag5
aa(lp4760
S'9416423'
p4761
ag3
ag4
ag5
aa(lp4762
S'9643222'
p4763
ag3
ag4
ag5
aa(lp4764
S'9049999'
p4765
ag3
ag10
ag5
aa(lp4766
S'9572948'
p4767
ag3
ag4
ag5
aa(lp4768
S'9829221'
p4769
ag10
ag4
ag11
aa(lp4770
S'9976207'
p4771
ag10
ag4
ag11
aa(lp4772
S'9114544'
p4773
ag10
ag10
ag11
aa(lp4774
S'9609732'
p4775
ag10
ag10
ag11
aa(lp4776
S'9784291'
p4777
ag3
ag4
ag5
aa(lp4778
S'9055038'
p4779
ag10
ag10
ag11
aa(lp4780
S'9038962'
p4781
ag3
ag10
ag5
aa(lp4782
S'9566215'
p4783
ag10
ag4
ag11
aa(lp4784
S'9679705'
p4785
ag3
ag4
ag5
aa(lp4786
S'9202515'
p4787
ag3
ag4
ag5
aa(lp4788
S'9896242'
p4789
ag10
ag4
ag11
aa(lp4790
S'9815467'
p4791
ag10
ag4
ag11
aa(lp4792
S'9722408'
p4793
ag10
ag4
ag11
aa(lp4794
S'9944714'
p4795
ag10
ag4
ag11
aa(lp4796
S'9015402'
p4797
ag3
ag4
ag5
aa(lp4798
S'9250756'
p4799
ag3
ag10
ag5
aa(lp4800
S'9037952'
p4801
ag3
ag4
ag5
aa(lp4802
S'9478343'
p4803
ag10
ag4
ag11
aa(lp4804
S'9310332'
p4805
ag10
ag10
ag11
aa(lp4806
S'9255053'
p4807
ag10
ag4
ag11
aa(lp4808
S'9618967'
p4809
ag10
ag4
ag11
aa(lp4810
S'9810351'
p4811
ag3
ag4
ag5
aa(lp4812
S'9435109'
p4813
ag10
ag4
ag11
aa(lp4814
S'9728987'
p4815
ag3
ag4
ag5
aa(lp4816
S'9532148'
p4817
ag10
ag4
ag11
aa(lp4818
S'9888797'
p4819
ag3
ag4
ag5
aa(lp4820
S'9731969'
p4821
ag10
ag4
ag11
aa(lp4822
S'9891264'
p4823
ag3
ag4
ag5
aa(lp4824
S'9429101'
p4825
ag3
ag4
ag5
aa(lp4826
S'9693782'
p4827
ag3
ag4
ag5
aa(lp4828
S'9230284'
p4829
ag10
ag4
ag11
aa(lp4830
S'9473302'
p4831
ag10
ag4
ag11
aa(lp4832
S'9809342'
p4833
ag10
ag4
ag11
aa(lp4834
S'9747255'
p4835
ag10
ag4
ag11
aa(lp4836
S'9580736'
p4837
ag10
ag4
ag11
aa(lp4838
S'9209792'
p4839
ag10
ag4
ag11
aa(lp4840
S'9405107'
p4841
ag3
ag4
ag5
aa(lp4842
S'9532955'
p4843
ag3
ag4
ag5
aa(lp4844
S'9364232'
p4845
ag3
ag10
ag5
aa(lp4846
S'9637159'
p4847
ag10
ag4
ag11
aa(lp4848
S'9947742'
p4849
ag3
ag4
ag5
aa(lp4850
S'9431345'
p4851
ag3
ag4
ag5
aa(lp4852
S'9172459'
p4853
ag3
ag4
ag5
aa(lp4854
S'9728546'
p4855
ag10
ag4
ag11
aa(lp4856
S'9635933'
p4857
ag10
ag4
ag11
aa(lp4858
S'9581915'
p4859
ag10
ag4
ag11
aa(lp4860
S'9455270'
p4861
ag3
ag4
ag5
aa(lp4862
S'9434114'
p4863
ag3
ag4
ag5
aa(lp4864
S'9318509'
p4865
ag3
ag4
ag5
aa(lp4866
S'9610439'
p4867
ag3
ag4
ag5
aa(lp4868
S'9615638'
p4869
ag10
ag10
ag11
aa(lp4870
S'9722038'
p4871
ag10
ag4
ag11
aa(lp4872
S'9033275'
p4873
ag10
ag4
ag11
aa(lp4874
S'9757487'
p4875
ag10
ag4
ag11
aa(lp4876
S'9775753'
p4877
ag3
ag4
ag5
aa(lp4878
S'9167018'
p4879
ag3
ag4
ag5
aa(lp4880
S'9454308'
p4881
ag3
ag4
ag5
aa(lp4882
S'9309342'
p4883
ag3
ag4
ag5
aa(lp4884
S'9778272'
p4885
ag3
ag4
ag5
aa(lp4886
S'9013941'
p4887
ag10
ag4
ag11
aa(lp4888
S'9210505'
p4889
ag10
ag10
ag11
aa(lp4890
S'9395992'
p4891
ag3
ag4
ag5
aa(lp4892
S'9082137'
p4893
ag10
ag10
ag11
aa(lp4894
S'9174582'
p4895
ag10
ag4
ag11
aa(lp4896
S'9456105'
p4897
ag10
ag4
ag11
aa(lp4898
S'9571939'
p4899
ag10
ag4
ag11
aa(lp4900
S'9117304'
p4901
ag10
ag4
ag11
aa(lp4902
S'9920168'
p4903
ag10
ag10
ag11
aa(lp4904
S'9208539'
p4905
ag3
ag4
ag5
aa(lp4906
S'9037697'
p4907
ag3
ag4
ag5
aa(lp4908
S'9737302'
p4909
ag3
ag4
ag5
aa(lp4910
S'9180558'
p4911
ag10
ag4
ag11
aa(lp4912
S'9639148'
p4913
ag10
ag4
ag11
aa(lp4914
S'9533049'
p4915
ag10
ag4
ag11
aa(lp4916
S'9716412'
p4917
ag3
ag4
ag5
aa(lp4918
S'9893182'
p4919
ag10
ag4
ag11
aa(lp4920
S'9670700'
p4921
ag3
ag4
ag5
aa(lp4922
S'9876296'
p4923
ag3
ag4
ag5
aa(lp4924
S'9882107'
p4925
ag3
ag4
ag5
aa(lp4926
S'9825304'
p4927
ag3
ag4
ag5
aa(lp4928
S'9561374'
p4929
ag3
ag4
ag5
aa(lp4930
S'9386983'
p4931
ag10
ag4
ag11
aa(lp4932
S'9451217'
p4933
ag3
ag4
ag5
aa(lp4934
S'9208539'
p4935
ag10
ag4
ag11
aa(lp4936
S'9952108'
p4937
ag3
ag4
ag5
aa(lp4938
S'9543679'
p4939
ag3
ag4
ag5
aa(lp4940
S'9079361'
p4941
ag10
ag10
ag11
aa(lp4942
S'9287295'
p4943
ag3
ag4
ag5
aa(lp4944
S'9825282'
p4945
ag3
ag4
ag5
aa(lp4946
S'9096856'
p4947
ag3
ag4
ag5
aa(lp4948
S'9115742'
p4949
ag10
ag4
ag11
aa(lp4950
S'9022289'
p4951
ag3
ag4
ag5
aa(lp4952
S'9460225'
p4953
ag10
ag4
ag11
aa(lp4954
S'9537090'
p4955
ag3
ag4
ag5
aa(lp4956
S'9496443'
p4957
ag10
ag10
ag11
aa(lp4958
S'9609253'
p4959
ag10
ag4
ag11
aa(lp4960
S'9153013'
p4961
ag3
ag4
ag5
aa(lp4962
S'9211049'
p4963
ag10
ag4
ag11
aa(lp4964
S'9057000'
p4965
ag3
ag4
ag5
aa(lp4966
S'9762677'
p4967
ag10
ag4
ag11
aa(lp4968
S'9942030'
p4969
ag3
ag4
ag5
aa(lp4970
S'9183590'
p4971
ag10
ag4
ag11
aa(lp4972
S'9884710'
p4973
ag10
ag4
ag11
aa(lp4974
S'9237029'
p4975
ag3
ag4
ag5
aa(lp4976
S'9578728'
p4977
ag3
ag4
ag5
aa(lp4978
S'9476633'
p4979
ag10
ag4
ag11
aa(lp4980
S'9650705'
p4981
ag3
ag10
ag5
aa(lp4982
S'9519410'
p4983
ag10
ag4
ag11
aa(lp4984
S'9709284'
p4985
ag3
ag4
ag5
aa(lp4986
S'9879774'
p4987
ag3
ag4
ag5
aa(lp4988
S'9209792'
p4989
ag3
ag4
ag5
aa(lp4990
S'9333085'
p4991
ag10
ag4
ag11
aa(lp4992
S'9871608'
p4993
ag10
ag4
ag11
aa(lp4994
S'9835784'
p4995
ag10
ag4
ag11
aa(lp4996
S'9291817'
p4997
ag10
ag4
ag11
aa(lp4998
S'9498839'
p4999
ag3
ag4
ag5
aa(lp5000
S'9502727'
p5001
ag3
ag4
ag5
aa(lp5002
S'9162770'
p5003
ag3
ag4
ag5
aa(lp5004
S'9534424'
p5005
ag3
ag4
ag5
aa(lp5006
S'9708647'
p5007
ag3
ag4
ag5
aa(lp5008
S'9235549'
p5009
ag10
ag4
ag11
aa(lp5010
S'9435525'
p5011
ag10
ag10
ag11
aa(lp5012
S'9041458'
p5013
ag10
ag4
ag11
aa(lp5014
S'9654702'
p5015
ag3
ag4
ag5
aa(lp5016
S'9483766'
p5017
ag3
ag4
ag5
aa(lp5018
S'9728483'
p5019
ag10
ag4
ag11
aa(lp5020
S'9008934'
p5021
ag3
ag4
ag5
aa(lp5022
S'9616228'
p5023
ag10
ag4
ag11
aa(lp5024
S'9746357'
p5025
ag10
ag4
ag11
aa(lp5026
S'9639148'
p5027
ag3
ag4
ag5
aa(lp5028
S'9267508'
p5029
ag3
ag4
ag5
aa(lp5030
S'9806950'
p5031
ag3
ag4
ag5
aa(lp5032
S'9537182'
p5033
ag10
ag4
ag11
aa(lp5034
S'9872350'
p5035
ag3
ag4
ag5
aa(lp5036
S'9573242'
p5037
ag3
ag4
ag5
aa(lp5038
S'9088175'
p5039
ag3
ag4
ag5
aa(lp5040
S'9438523'
p5041
ag3
ag4
ag5
aa(lp5042
S'9391984'
p5043
ag3
ag4
ag5
aa(lp5044
S'9228372'
p5045
ag3
ag4
ag5
aa(lp5046
S'9169499'
p5047
ag3
ag4
ag5
aa(lp5048
S'9153696'
p5049
ag10
ag4
ag11
aa(lp5050
S'9636409'
p5051
ag3
ag4
ag5
aa(lp5052
S'9397988'
p5053
ag3
ag4
ag5
aa(lp5054
S'9066677'
p5055
ag10
ag4
ag11
aa(lp5056
S'9252130'
p5057
ag3
ag4
ag5
aa(lp5058
S'9265514'
p5059
ag10
ag4
ag11
aa(lp5060
S'9220406'
p5061
ag10
ag4
ag11
aa(lp5062
S'9596662'
p5063
ag3
ag4
ag5
aa(lp5064
S'9376021'
p5065
ag3
ag4
ag5
aa(lp5066
S'9389183'
p5067
ag3
ag4
ag5
aa(lp5068
S'9893600'
p5069
ag3
ag4
ag5
aa(lp5070
S'9710976'
p5071
ag10
ag4
ag11
aa(lp5072
S'9364232'
p5073
ag10
ag10
ag11
aa(lp5074
S'9384145'
p5075
ag3
ag4
ag5
aa(lp5076
S'9908315'
p5077
ag10
ag4
ag11
aa(lp5078
S'9817618'
p5079
ag10
ag4
ag11
aa(lp5080
S'9714465'
p5081
ag10
ag4
ag11
aa(lp5082
S'9102258'
p5083
ag10
ag4
ag11
aa(lp5084
S'9717685'
p5085
ag3
ag4
ag5
aa(lp5086
S'9676041'
p5087
ag3
ag4
ag5
aa(lp5088
S'9844785'
p5089
ag10
ag4
ag11
aa(lp5090
S'9035317'
p5091
ag10
ag4
ag11
aa(lp5092
S'9282203'
p5093
ag3
ag4
ag5
aa(lp5094
S'9678997'
p5095
ag10
ag4
ag11
aa(lp5096
S'9465131'
p5097
ag3
ag4
ag5
aa(lp5098
S'9531528'
p5099
ag10
ag4
ag11
aa(lp5100
S'9806159'
p5101
ag10
ag10
ag11
aa(lp5102
S'9312296'
p5103
ag10
ag4
ag11
aa(lp5104
S'9153696'
p5105
ag3
ag4
ag5
aa(lp5106
S'9559375'
p5107
ag3
ag4
ag5
aa(lp5108
S'9192585'
p5109
ag3
ag4
ag5
aa(lp5110
S'9524744'
p5111
ag10
ag4
ag11
aa(lp5112
S'9378389'
p5113
ag3
ag4
ag5
aa(lp5114
S'9092643'
p5115
ag10
ag4
ag11
aa(lp5116
S'9017876'
p5117
ag3
ag4
ag5
aa(lp5118
S'9647913'
p5119
ag3
ag4
ag5
aa(lp5120
S'9856656'
p5121
ag10
ag4
ag11
aa(lp5122
S'9086868'
p5123
ag10
ag4
ag11
aa(lp5124
S'9563176'
p5125
ag10
ag10
ag11
aa(lp5126
S'9116754'
p5127
ag3
ag4
ag5
aa(lp5128
S'9759382'
p5129
ag10
ag4
ag11
aa(lp5130
S'9003430'
p5131
ag3
ag4
ag5
aa(lp5132
S'9657071'
p5133
ag10
ag4
ag11
aa(lp5134
S'9680194'
p5135
ag3
ag4
ag5
aa(lp5136
S'9661214'
p5137
ag10
ag4
ag11
aa(lp5138
S'9431322'
p5139
ag10
ag4
ag11
aa(lp5140
S'9297957'
p5141
ag10
ag10
ag11
aa(lp5142
S'9894184'
p5143
ag10
ag4
ag11
aa(lp5144
S'9667445'
p5145
ag10
ag4
ag11
aa(lp5146
S'9299361'
p5147
ag3
ag4
ag5
aa(lp5148
S'9063823'
p5149
ag10
ag4
ag11
aa(lp5150
S'9637393'
p5151
ag10
ag4
ag11
aa(lp5152
S'9846783'
p5153
ag3
ag4
ag5
aa(lp5154
S'9324182'
p5155
ag3
ag4
ag5
aa(lp5156
S'9740781'
p5157
ag10
ag4
ag11
aa(lp5158
S'9386991'
p5159
ag3
ag4
ag5
aa(lp5160
S'9856114'
p5161
ag10
ag4
ag11
aa(lp5162
S'9507929'
p5163
ag3
ag4
ag5
aa(lp5164
S'9996851'
p5165
ag10
ag4
ag11
aa(lp5166
S'9842266'
p5167
ag3
ag4
ag5
aa(lp5168
S'9392060'
p5169
ag3
ag4
ag5
aa(lp5170
S'9628716'
p5171
ag10
ag4
ag11
aa(lp5172
S'9607954'
p5173
ag10
ag4
ag11
aa(lp5174
S'9532617'
p5175
ag3
ag4
ag5
aa(lp5176
S'9203454'
p5177
ag3
ag4
ag5
aa(lp5178
S'9805639'
p5179
ag10
ag4
ag11
aa(lp5180
S'9825282'
p5181
ag10
ag4
ag11
aa(lp5182
S'9107980'
p5183
ag3
ag4
ag5
aa(lp5184
S'9266027'
p5185
ag10
ag4
ag11
aa(lp5186
S'9806459'
p5187
ag3
ag4
ag5
aa(lp5188
S'9890238'
p5189
ag10
ag4
ag11
aa(lp5190
S'9888738'
p5191
ag10
ag4
ag11
aa(lp5192
S'9243198'
p5193
ag3
ag4
ag5
aa(lp5194
S'9788503'
p5195
ag3
ag4
ag5
aa(lp5196
S'9315064'
p5197
ag3
ag4
ag5
aa(lp5198
S'9777777'
p5199
ag3
ag4
ag5
aa(lp5200
S'9583994'
p5201
ag3
ag4
ag5
aa(lp5202
S'9721192'
p5203
ag10
ag4
ag11
aa(lp5204
S'9892736'
p5205
ag3
ag4
ag5
aa(lp5206
S'9383004'
p5207
ag3
ag4
ag5
aa(lp5208
S'9878804'
p5209
ag3
ag4
ag5
aa(lp5210
S'9743577'
p5211
ag10
ag4
ag11
aa(lp5212
S'9463400'
p5213
ag10
ag4
ag11
aa(lp5214
S'9332151'
p5215
ag10
ag10
ag11
aa(lp5216
S'9250682'
p5217
ag3
ag4
ag5
aa(lp5218
S'9255567'
p5219
ag3
ag4
ag5
aa(lp5220
S'9710415'
p5221
ag3
ag4
ag5
aa(lp5222
S'9496386'
p5223
ag3
ag4
ag5
aa(lp5224
S'9512848'
p5225
ag10
ag4
ag11
aa(lp5226
S'9588488'
p5227
ag3
ag4
ag5
aa(lp5228
S'9792220'
p5229
ag3
ag4
ag5
aa(lp5230
S'9282240'
p5231
ag10
ag4
ag11
aa(lp5232
S'9325842'
p5233
ag10
ag4
ag11
aa(lp5234
S'9066820'
p5235
ag3
ag4
ag5
aa(lp5236
S'9063823'
p5237
ag3
ag4
ag5
aa(lp5238
S'9877252'
p5239
ag10
ag4
ag11
aa(lp5240
S'9272271'
p5241
ag3
ag4
ag5
aa(lp5242
S'9607213'
p5243
ag3
ag4
ag5
aa(lp5244
S'9424368'
p5245
ag3
ag4
ag5
aa(lp5246
S'9639581'
p5247
ag3
ag4
ag5
aa(lp5248
S'9507392'
p5249
ag10
ag10
ag11
aa(lp5250
S'9338059'
p5251
ag10
ag4
ag11
aa(lp5252
S'9638666'
p5253
ag3
ag4
ag5
aa(lp5254
S'9356305'
p5255
ag3
ag4
ag5
aa(lp5256
S'9272198'
p5257
ag10
ag10
ag11
aa(lp5258
S'9068894'
p5259
ag3
ag4
ag5
aa(lp5260
S'9864759'
p5261
ag3
ag4
ag5
aa(lp5262
S'9219500'
p5263
ag10
ag10
ag11
aa(lp5264
S'9542889'
p5265
ag3
ag10
ag5
aa(lp5266
S'9258526'
p5267
ag10
ag4
ag11
aa(lp5268
S'9181790'
p5269
ag10
ag4
ag11
aa(lp5270
S'9735538'
p5271
ag3
ag4
ag5
aa(lp5272
S'9110292'
p5273
ag3
ag4
ag5
aa(lp5274
S'9966213'
p5275
ag3
ag4
ag5
aa(lp5276
S'9789297'
p5277
ag3
ag10
ag5
aa(lp5278
S'9556110'
p5279
ag3
ag4
ag5
aa(lp5280
S'9279169'
p5281
ag10
ag4
ag11
aa(lp5282
S'9534908'
p5283
ag3
ag4
ag5
aa(lp5284
S'9878114'
p5285
ag3
ag4
ag5
aa(lp5286
S'9382772'
p5287
ag3
ag4
ag5
aa(lp5288
S'9332058'
p5289
ag10
ag4
ag11
aa(lp5290
S'9372390'
p5291
ag3
ag4
ag5
aa(lp5292
S'9788503'
p5293
ag10
ag4
ag11
aa(lp5294
S'9630423'
p5295
ag3
ag4
ag5
aa(lp5296
S'9454308'
p5297
ag10
ag4
ag11
aa(lp5298
S'9487451'
p5299
ag3
ag4
ag5
aa(lp5300
S'9043637'
p5301
ag10
ag4
ag11
aa(lp5302
S'9416308'
p5303
ag10
ag4
ag11
aa(lp5304
S'9789177'
p5305
ag10
ag4
ag11
aa(lp5306
S'9044508'
p5307
ag10
ag4
ag11
aa(lp5308
S'9781555'
p5309
ag10
ag4
ag11
aa(lp5310
S'9016179'
p5311
ag3
ag4
ag5
aa(lp5312
S'9359678'
p5313
ag3
ag4
ag5
aa(lp5314
S'9245760'
p5315
ag10
ag4
ag11
aa(lp5316
S'9285212'
p5317
ag10
ag10
ag11
aa(lp5318
S'9689083'
p5319
ag10
ag10
ag11
aa(lp5320
S'9932578'
p5321
ag3
ag4
ag5
aa(lp5322
S'9454360'
p5323
ag10
ag4
ag11
aa(lp5324
S'9439428'
p5325
ag3
ag4
ag5
aa(lp5326
S'9325745'
p5327
ag10
ag4
ag11
aa(lp5328
S'9556917'
p5329
ag3
ag4
ag5
aa(lp5330
S'9583994'
p5331
ag10
ag4
ag11
aa(lp5332
S'9361302'
p5333
ag3
ag4
ag5
aa(lp5334
S'9457863'
p5335
ag3
ag10
ag5
aa(lp5336
S'9003815'
p5337
ag10
ag4
ag11
aa(lp5338
S'9625187'
p5339
ag3
ag4
ag5
aa(lp5340
S'9775951'
p5341
ag10
ag4
ag11
aa(lp5342
S'9376021'
p5343
ag10
ag4
ag11
aa(lp5344
S'9545822'
p5345
ag10
ag4
ag11
aa(lp5346
S'9934064'
p5347
ag10
ag10
ag11
aa(lp5348
S'9305065'
p5349
ag3
ag10
ag5
aa(lp5350
S'9087863'
p5351
ag3
ag4
ag5
aa(lp5352
S'9416700'
p5353
ag3
ag4
ag5
aa(lp5354
S'9850237'
p5355
ag10
ag4
ag11
aa(lp5356
S'9405118'
p5357
ag10
ag4
ag11
aa(lp5358
S'9795559'
p5359
ag3
ag4
ag5
aa(lp5360
S'9596662'
p5361
ag10
ag4
ag11
aa(lp5362
S'9407027'
p5363
ag3
ag4
ag5
aa(lp5364
S'9101270'
p5365
ag3
ag10
ag5
aa(lp5366
S'9826196'
p5367
ag10
ag4
ag11
aa(lp5368
S'9022197'
p5369
ag10
ag4
ag11
aa(lp5370
S'9754373'
p5371
ag10
ag4
ag11
aa(lp5372
S'9171097'
p5373
ag10
ag10
ag11
aa(lp5374
S'9625560'
p5375
ag10
ag4
ag11
aa(lp5376
S'9804177'
p5377
ag3
ag10
ag5
aa(lp5378
S'9930863'
p5379
ag3
ag4
ag5
aa(lp5380
S'9549162'
p5381
ag3
ag4
ag5
aa(lp5382
S'9178448'
p5383
ag10
ag4
ag11
aa(lp5384
S'9219596'
p5385
ag3
ag4
ag5
aa(lp5386
S'9983246'
p5387
ag10
ag4
ag11
aa(lp5388
S'9912275'
p5389
ag10
ag4
ag11
aa(lp5390
S'9686327'
p5391
ag3
ag4
ag5
aa(lp5392
S'9123289'
p5393
ag10
ag4
ag11
aa(lp5394
S'9557111'
p5395
ag3
ag4
ag5
aa(lp5396
S'9107524'
p5397
ag10
ag4
ag11
aa(lp5398
S'9788979'
p5399
ag10
ag4
ag11
aa(lp5400
S'9948792'
p5401
ag10
ag10
ag11
aa(lp5402
S'9279874'
p5403
ag3
ag4
ag5
aa(lp5404
S'9684605'
p5405
ag10
ag4
ag11
aa(lp5406
S'9886575'
p5407
ag3
ag4
ag5
aa(lp5408
S'9089866'
p5409
ag10
ag4
ag11
aa(lp5410
S'9960949'
p5411
ag10
ag4
ag11
aa(lp5412
S'9813353'
p5413
ag10
ag4
ag11
aa(lp5414
S'9616919'
p5415
ag3
ag10
ag5
aa(lp5416
S'9878707'
p5417
ag3
ag4
ag5
aa(lp5418
S'9930368'
p5419
ag3
ag4
ag5
aa(lp5420
S'9901158'
p5421
ag3
ag4
ag5
aa(lp5422
S'9241780'
p5423
ag10
ag4
ag11
aa(lp5424
S'9227873'
p5425
ag3
ag4
ag5
aa(lp5426
S'9800607'
p5427
ag3
ag4
ag5
aa(lp5428
S'9033937'
p5429
ag3
ag4
ag5
aa(lp5430
S'9407138'
p5431
ag3
ag4
ag5
aa(lp5432
S'9969009'
p5433
ag10
ag4
ag11
aa(lp5434
S'9250222'
p5435
ag3
ag4
ag5
aa(lp5436
S'9347321'
p5437
ag3
ag4
ag5
aa(lp5438
S'9175275'
p5439
ag3
ag4
ag5
aa(lp5440
S'9507392'
p5441
ag3
ag10
ag5
aa(lp5442
S'9534036'
p5443
ag3
ag4
ag5
aa(lp5444
S'9054866'
p5445
ag10
ag4
ag11
aa(lp5446
S'9508788'
p5447
ag10
ag4
ag11
aa(lp5448
S'9952042'
p5449
ag3
ag4
ag5
aa(lp5450
S'9866764'
p5451
ag10
ag4
ag11
aa(lp5452
S'9305113'
p5453
ag3
ag4
ag5
aa(lp5454
S'9293349'
p5455
ag3
ag4
ag5
aa(lp5456
S'9697466'
p5457
ag3
ag4
ag5
aa(lp5458
S'9697342'
p5459
ag10
ag4
ag11
aa(lp5460
S'9765432'
p5461
ag3
ag4
ag5
aa(lp5462
S'9935643'
p5463
ag10
ag4
ag11
aa(lp5464
S'9626869'
p5465
ag10
ag4
ag11
aa(lp5466
S'9162906'
p5467
ag10
ag4
ag11
aa(lp5468
S'9789504'
p5469
ag10
ag4
ag11
aa(lp5470
S'9003815'
p5471
ag3
ag4
ag5
aa(lp5472
S'9855117'
p5473
ag10
ag4
ag11
aa(lp5474
S'9346843'
p5475
ag10
ag4
ag11
aa(lp5476
S'9805931'
p5477
ag10
ag10
ag11
aa(lp5478
S'9370237'
p5479
ag10
ag10
ag11
aa(lp5480
S'9353397'
p5481
ag10
ag4
ag11
aa(lp5482
S'9208055'
p5483
ag3
ag4
ag5
aa(lp5484
S'9700314'
p5485
ag10
ag4
ag11
aa(lp5486
S'9307242'
p5487
ag3
ag4
ag5
aa(lp5488
S'9686834'
p5489
ag10
ag4
ag11
aa(lp5490
S'9036948'
p5491
ag10
ag4
ag11
aa(lp5492
S'9396405'
p5493
ag10
ag4
ag11
aa(lp5494
S'9248932'
p5495
ag10
ag4
ag11
aa(lp5496
S'9646917'
p5497
ag3
ag4
ag5
aa(lp5498
S'9107524'
p5499
ag3
ag4
ag5
aa(lp5500
S'9695621'
p5501
ag3
ag4
ag5
aa(lp5502
S'9837774'
p5503
ag3
ag4
ag5
aa(lp5504
S'9455270'
p5505
ag10
ag10
ag11
aa(lp5506
S'9794269'
p5507
ag3
ag4
ag5
aa(lp5508
S'9163391'
p5509
ag10
ag4
ag11
aa(lp5510
S'9795389'
p5511
ag3
ag4
ag5
aa(lp5512
S'9524362'
p5513
ag10
ag10
ag11
aa(lp5514
S'9578253'
p5515
ag3
ag4
ag5
aa(lp5516
S'9313715'
p5517
ag10
ag4
ag11
aa(lp5518
S'9081635'
p5519
ag10
ag10
ag11
aa(lp5520
S'9552043'
p5521
ag10
ag4
ag11
aa(lp5522
S'9135902'
p5523
ag3
ag10
ag5
aa(lp5524
S'9340335'
p5525
ag3
ag4
ag5
aa(lp5526
S'9815779'
p5527
ag3
ag4
ag5
aa(lp5528
S'9407340'
p5529
ag3
ag4
ag5
aa(lp5530
S'9892270'
p5531
ag3
ag4
ag5
aa(lp5532
S'9254514'
p5533
ag3
ag4
ag5
aa(lp5534
S'9103449'
p5535
ag3
ag10
ag5
aa(lp5536
S'9876530'
p5537
ag10
ag4
ag11
aa(lp5538
S'9282772'
p5539
ag10
ag4
ag11
aa(lp5540
S'9536440'
p5541
ag3
ag4
ag5
aa(lp5542
S'9580474'
p5543
ag3
ag10
ag5
aa(lp5544
S'9954184'
p5545
ag10
ag4
ag11
aa(lp5546
S'9718992'
p5547
ag10
ag10
ag11
aa(lp5548
S'9830048'
p5549
ag10
ag4
ag11
aa(lp5550
S'9574236'
p5551
ag3
ag4
ag5
aa(lp5552
S'9761961'
p5553
ag3
ag4
ag5
aa(lp5554
S'9189823'
p5555
ag3
ag4
ag5
aa(lp5556
S'9402960'
p5557
ag10
ag4
ag11
aa(lp5558
S'9898404'
p5559
ag10
ag4
ag11
aa(lp5560
S'9235549'
p5561
ag3
ag4
ag5
aa(lp5562
S'9415847'
p5563
ag10
ag4
ag11
aa(lp5564
S'9628716'
p5565
ag3
ag4
ag5
aa(lp5566
S'9935953'
p5567
ag10
ag4
ag11
aa(lp5568
S'9655592'
p5569
ag10
ag4
ag11
aa(lp5570
S'9791529'
p5571
ag3
ag4
ag5
aa(lp5572
S'9692604'
p5573
ag10
ag4
ag11
aa(lp5574
S'9828819'
p5575
ag10
ag4
ag11
aa(lp5576
S'9223980'
p5577
ag3
ag10
ag5
aa(lp5578
S'9570194'
p5579
ag10
ag4
ag11
aa(lp5580
S'9485461'
p5581
ag3
ag4
ag5
aa(lp5582
S'9865771'
p5583
ag3
ag4
ag5
aa(lp5584
S'9086407'
p5585
ag10
ag10
ag11
aa(lp5586
S'9884320'
p5587
ag10
ag4
ag11
aa(lp5588
S'9098882'
p5589
ag3
ag4
ag5
aa(lp5590
S'9618226'
p5591
ag10
ag4
ag11
aa(lp5592
S'9435250'
p5593
ag10
ag4
ag11
aa(lp5594
S'9990072'
p5595
ag10
ag4
ag11
aa(lp5596
S'9702644'
p5597
ag3
ag4
ag5
aa(lp5598
S'9730488'
p5599
ag10
ag4
ag11
aa(lp5600
S'9894795'
p5601
ag10
ag4
ag11
aa(lp5602
S'9620398'
p5603
ag3
ag4
ag5
aa(lp5604
S'9933955'
p5605
ag10
ag4
ag11
aa(lp5606
S'9970928'
p5607
ag10
ag4
ag11
aa(lp5608
S'9313331'
p5609
ag10
ag4
ag11
aa(lp5610
S'9115859'
p5611
ag3
ag4
ag5
aa(lp5612
S'9890264'
p5613
ag3
ag4
ag5
aa(lp5614
S'9644950'
p5615
ag3
ag4
ag5
aa(lp5616
S'9156307'
p5617
ag10
ag4
ag11
aa(lp5618
S'9800154'
p5619
ag3
ag4
ag5
aa(lp5620
S'9649566'
p5621
ag3
ag4
ag5
aa(lp5622
S'9049999'
p5623
ag10
ag4
ag11
aa(lp5624
S'9255535'
p5625
ag10
ag10
ag11
aa(lp5626
S'9502938'
p5627
ag3
ag10
ag5
aa(lp5628
S'9703978'
p5629
ag3
ag4
ag5
aa(lp5630
S'9722038'
p5631
ag3
ag4
ag5
aa(lp5632
S'9611257'
p5633
ag10
ag4
ag11
aa(lp5634
S'9628436'
p5635
ag3
ag4
ag5
aa(lp5636
S'9323403'
p5637
ag10
ag4
ag11
aa(lp5638
S'9790287'
p5639
ag3
ag4
ag5
aa(lp5640
S'9794140'
p5641
ag10
ag4
ag11
aa(lp5642
S'9627893'
p5643
ag3
ag4
ag5
aa(lp5644
S'9102297'
p5645
ag10
ag10
ag11
aa(lp5646
S'9248932'
p5647
ag3
ag4
ag5
aa(lp5648
S'9285207'
p5649
ag10
ag4
ag11
aa(lp5650
S'9241546'
p5651
ag10
ag4
ag11
aa(lp5652
S'9446305'
p5653
ag10
ag4
ag11
aa(lp5654
S'9622603'
p5655
ag3
ag4
ag5
aa(lp5656
S'9891187'
p5657
ag10
ag4
ag11
aa(lp5658
S'9373786'
p5659
ag10
ag10
ag11
aa(lp5660
S'9249027'
p5661
ag10
ag4
ag11
aa(lp5662
S'9268724'
p5663
ag3
ag10
ag5
aa(lp5664
S'9038683'
p5665
ag10
ag4
ag11
aa(lp5666
S'9802822'
p5667
ag10
ag4
ag11
aa(lp5668
S'9256567'
p5669
ag10
ag4
ag11
aa(lp5670
S'9888561'
p5671
ag3
ag4
ag5
aa(lp5672
S'9349395'
p5673
ag3
ag4
ag5
aa(lp5674
S'9274245'
p5675
ag3
ag4
ag5
aa(lp5676
S'9309098'
p5677
ag3
ag4
ag5
aa(lp5678
S'9942867'
p5679
ag10
ag4
ag11
aa(lp5680
S'9370170'
p5681
ag3
ag4
ag5
aa(lp5682
S'9259523'
p5683
ag3
ag4
ag5
aa(lp5684
S'9875794'
p5685
ag3
ag4
ag5
aa(lp5686
S'9547360'
p5687
ag10
ag4
ag11
aa(lp5688
S'9574271'
p5689
ag10
ag10
ag11
aa(lp5690
S'9752000'
p5691
ag10
ag4
ag11
aa(lp5692
S'9929823'
p5693
ag10
ag4
ag11
aa(lp5694
S'9645116'
p5695
ag10
ag4
ag11
aa(lp5696
S'9608695'
p5697
ag10
ag4
ag11
aa(lp5698
S'9269056'
p5699
ag10
ag4
ag11
aa(lp5700
S'9674454'
p5701
ag10
ag10
ag11
aa(lp5702
S'9420682'
p5703
ag10
ag4
ag11
aa(lp5704
S'9746055'
p5705
ag10
ag4
ag11
aa(lp5706
S'9787305'
p5707
ag3
ag4
ag5
aa(lp5708
S'9164965'
p5709
ag10
ag10
ag11
aa(lp5710
S'9005321'
p5711
ag3
ag4
ag5
aa(lp5712
S'9208055'
p5713
ag10
ag4
ag11
aa(lp5714
S'9860552'
p5715
ag3
ag10
ag5
aa(lp5716
S'9487409'
p5717
ag10
ag4
ag11
aa(lp5718
S'9276146'
p5719
ag10
ag4
ag11
aa(lp5720
S'9660607'
p5721
ag3
ag4
ag5
aa(lp5722
S'9375317'
p5723
ag3
ag10
ag5
aa(lp5724
S'9656912'
p5725
ag3
ag4
ag5
aa(lp5726
S'9820479'
p5727
ag10
ag4
ag11
aa(lp5728
S'9762412'
p5729
ag10
ag4
ag11
aa(lp5730
S'9754894'
p5731
ag10
ag4
ag11
aa(lp5732
S'9650074'
p5733
ag10
ag4
ag11
aa(lp5734
S'9836553'
p5735
ag3
ag4
ag5
aa(lp5736
S'9884320'
p5737
ag3
ag4
ag5
aa(lp5738
S'9551556'
p5739
ag3
ag4
ag5
aa(lp5740
S'9339337'
p5741
ag3
ag4
ag5
aa(lp5742
S'9447878'
p5743
ag10
ag4
ag11
aa(lp5744
S'9910757'
p5745
ag10
ag4
ag11
aa(lp5746
S'9597645'
p5747
ag10
ag4
ag11
aa(lp5748
S'9526434'
p5749
ag10
ag4
ag11
aa(lp5750
S'9881756'
p5751
ag10
ag4
ag11
aa(lp5752
S'9395121'
p5753
ag3
ag4
ag5
aa(lp5754
S'9427002'
p5755
ag10
ag4
ag11
aa(lp5756
S'9877790'
p5757
ag10
ag4
ag11
aa(lp5758
S'9578931'
p5759
ag10
ag4
ag11
aa(lp5760
S'9081799'
p5761
ag10
ag10
ag11
aa(lp5762
S'9970801'
p5763
ag3
ag4
ag5
aa(lp5764
S'9398079'
p5765
ag3
ag4
ag5
aa(lp5766
S'9880794'
p5767
ag3
ag4
ag5
aa(lp5768
S'9375122'
p5769
ag3
ag10
ag5
aa(lp5770
S'9223040'
p5771
ag3
ag4
ag5
aa(lp5772
S'9677587'
p5773
ag10
ag4
ag11
aa(lp5774
S'9245448'
p5775
ag3
ag4
ag5
aa(lp5776
S'9434318'
p5777
ag3
ag4
ag5
aa(lp5778
S'9309342'
p5779
ag10
ag4
ag11
aa(lp5780
S'9935827'
p5781
ag10
ag4
ag11
aa(lp5782
S'9003316'
p5783
ag3
ag4
ag5
aa(lp5784
S'9708353'
p5785
ag3
ag4
ag5
aa(lp5786
S'9049007'
p5787
ag10
ag4
ag11
aa(lp5788
S'9426880'
p5789
ag3
ag4
ag5
aa(lp5790
S'9644892'
p5791
ag10
ag4
ag11
aa(lp5792
S'9680194'
p5793
ag10
ag10
ag11
aa(lp5794
S'9859361'
p5795
ag3
ag4
ag5
aa(lp5796
S'9240548'
p5797
ag10
ag4
ag11
aa(lp5798
S'9926617'
p5799
ag3
ag4
ag5
aa(lp5800
S'9323439'
p5801
ag3
ag4
ag5
aa(lp5802
S'9872789'
p5803
ag10
ag4
ag11
aa(lp5804
S'9426880'
p5805
ag10
ag4
ag11
aa(lp5806
S'9291210'
p5807
ag10
ag10
ag11
aa(lp5808
S'9756932'
p5809
ag3
ag4
ag5
aa(lp5810
S'9438149'
p5811
ag10
ag4
ag11
aa(lp5812
S'9935827'
p5813
ag3
ag4
ag5
aa(lp5814
S'9504056'
p5815
ag3
ag10
ag5
aa(lp5816
S'9184495'
p5817
ag10
ag4
ag11
aa(lp5818
S'9860356'
p5819
ag3
ag4
ag5
aa(lp5820
S'9617005'
p5821
ag3
ag4
ag5
aa(lp5822
S'9623679'
p5823
ag3
ag4
ag5
aa(lp5824
S'9513374'
p5825
ag3
ag4
ag5
aa(lp5826
S'9533386'
p5827
ag3
ag4
ag5
aa(lp5828
S'9528158'
p5829
ag3
ag10
ag5
aa(lp5830
S'9716478'
p5831
ag3
ag10
ag5
aa(lp5832
S'9821480'
p5833
ag3
ag4
ag5
aa(lp5834
S'9265023'
p5835
ag3
ag4
ag5
aa(lp5836
S'9765419'
p5837
ag3
ag4
ag5
aa(lp5838
S'9606218'
p5839
ag3
ag4
ag5
aa(lp5840
S'9297957'
p5841
ag3
ag4
ag5
aa(lp5842
S'9019406'
p5843
ag10
ag4
ag11
aa(lp5844
S'9653152'
p5845
ag10
ag4
ag11
aa(lp5846
S'9254920'
p5847
ag3
ag4
ag5
aa(lp5848
S'9848239'
p5849
ag3
ag4
ag5
aa(lp5850
S'9211800'
p5851
ag10
ag4
ag11
aa(lp5852
S'9312419'
p5853
ag10
ag4
ag11
aa(lp5854
S'9438337'
p5855
ag10
ag4
ag11
aa(lp5856
S'9291234'
p5857
ag10
ag4
ag11
aa(lp5858
S'9824005'
p5859
ag10
ag10
ag11
aa(lp5860
S'9522128'
p5861
ag10
ag10
ag11
aa(lp5862
S'9179001'
p5863
ag10
ag10
ag11
aa(lp5864
S'9633861'
p5865
ag10
ag10
ag11
aa(lp5866
S'9851631'
p5867
ag3
ag4
ag5
aa(lp5868
S'9211009'
p5869
ag3
ag4
ag5
aa(lp5870
S'9782690'
p5871
ag10
ag4
ag11
aa(lp5872
S'9413949'
p5873
ag10
ag4
ag11
aa(lp5874
S'9940058'
p5875
ag10
ag4
ag11
aa(lp5876
S'9907282'
p5877
ag3
ag4
ag5
aa(lp5878
S'9536410'
p5879
ag10
ag4
ag11
aa(lp5880
S'9165552'
p5881
ag10
ag4
ag11
aa(lp5882
S'9442416'
p5883
ag3
ag4
ag5
aa(lp5884
S'9646482'
p5885
ag10
ag4
ag11
aa(lp5886
S'9573242'
p5887
ag10
ag4
ag11
aa(lp5888
S'9239552'
p5889
ag3
ag10
ag5
aa(lp5890
S'9013941'
p5891
ag3
ag4
ag5
aa(lp5892
S'9609444'
p5893
ag10
ag4
ag11
aa(lp5894
S'9871240'
p5895
ag10
ag4
ag11
aa(lp5896
S'9133694'
p5897
ag3
ag4
ag5
aa(lp5898
S'9005075'
p5899
ag3
ag4
ag5
aa(lp5900
S'9775237'
p5901
ag10
ag4
ag11
aa(lp5902
S'9828312'
p5903
ag3
ag4
ag5
aa(lp5904
S'9592478'
p5905
ag3
ag4
ag5
aa(lp5906
S'9274833'
p5907
ag3
ag4
ag5
aa(lp5908
S'9300796'
p5909
ag3
ag10
ag5
aa(lp5910
S'9777014'
p5911
ag10
ag10
ag11
aa(lp5912
S'9363662'
p5913
ag3
ag4
ag5
aa(lp5914
S'9664932'
p5915
ag3
ag4
ag5
aa(lp5916
S'9726175'
p5917
ag10
ag4
ag11
aa(lp5918
S'9680874'
p5919
ag10
ag4
ag11
aa(lp5920
S'9213753'
p5921
ag3
ag4
ag5
aa(lp5922
S'9168534'
p5923
ag3
ag10
ag5
aa(lp5924
S'9084244'
p5925
ag3
ag10
ag5
aa(lp5926
S'9329729'
p5927
ag3
ag4
ag5
aa(lp5928
S'9821982'
p5929
ag3
ag10
ag5
aa(lp5930
S'9879242'
p5931
ag10
ag4
ag11
aa(lp5932
S'9951775'
p5933
ag10
ag10
ag11
aa(lp5934
S'9956170'
p5935
ag3
ag4
ag5
aa(lp5936
S'9961951'
p5937
ag10
ag4
ag11
aa(lp5938
S'9164467'
p5939
ag10
ag4
ag11
aa(lp5940
S'9501369'
p5941
ag10
ag4
ag11
aa(lp5942
S'9402139'
p5943
ag10
ag10
ag11
aa(lp5944
S'9378288'
p5945
ag3
ag10
ag5
aa(lp5946
S'9852273'
p5947
ag10
ag4
ag11
aa(lp5948
S'9508858'
p5949
ag3
ag4
ag5
aa(lp5950
S'9624954'
p5951
ag10
ag4
ag11
aa(lp5952
S'9670198'
p5953
ag3
ag10
ag5
aa(lp5954
S'9897774'
p5955
ag10
ag4
ag11
aa(lp5956
S'9371355'
p5957
ag10
ag4
ag11
aa(lp5958
S'9378093'
p5959
ag3
ag4
ag5
aa(lp5960
S'9835061'
p5961
ag10
ag4
ag11
aa(lp5962
S'9645608'
p5963
ag3
ag4
ag5
aa(lp5964
S'9557926'
p5965
ag3
ag4
ag5
aa(lp5966
S'9931370'
p5967
ag10
ag4
ag11
aa(lp5968
S'9797641'
p5969
ag3
ag10
ag5
aa(lp5970
S'9525846'
p5971
ag3
ag4
ag5
aa(lp5972
S'9365269'
p5973
ag10
ag4
ag11
aa(lp5974
S'9222973'
p5975
ag3
ag4
ag5
aa(lp5976
S'9791110'
p5977
ag10
ag4
ag11
aa(lp5978
S'9282888'
p5979
ag3
ag4
ag5
aa(lp5980
S'9712419'
p5981
ag10
ag4
ag11
aa(lp5982
S'9223285'
p5983
ag10
ag10
ag11
aa(lp5984
S'9928844'
p5985
ag3
ag4
ag5
aa(lp5986
S'9608502'
p5987
ag10
ag4
ag11
aa(lp5988
S'9388978'
p5989
ag3
ag4
ag5
aa(lp5990
S'9623194'
p5991
ag10
ag4
ag11
aa(lp5992
S'9695111'
p5993
ag10
ag4
ag11
aa(lp5994
S'9373065'
p5995
ag10
ag10
ag11
aa(lp5996
S'9941323'
p5997
ag10
ag10
ag11
aa(lp5998
S'9042459'
p5999
ag3
ag4
ag5
aa(lp6000
S'9938327'
p6001
ag10
ag4
ag11
aa(lp6002
S'9802615'
p6003
ag10
ag10
ag11
aa(lp6004
S'9875794'
p6005
ag10
ag4
ag11
aa(lp6006
S'9805321'
p6007
ag10
ag10
ag11
aa(lp6008
S'9305336'
p6009
ag10
ag4
ag11
aa(lp6010
S'9990698'
p6011
ag3
ag4
ag5
aa(lp6012
S'9573142'
p6013
ag3
ag4
ag5
aa(lp6014
S'9648692'
p6015
ag3
ag4
ag5
aa(lp6016
S'9551114'
p6017
ag3
ag4
ag5
aa(lp6018
S'9807689'
p6019
ag10
ag4
ag11
aa(lp6020
S'9887310'
p6021
ag3
ag4
ag5
aa(lp6022
S'9276146'
p6023
ag3
ag4
ag5
aa(lp6024
S'9500410'
p6025
ag10
ag4
ag11
aa(lp6026
S'9197994'
p6027
ag10
ag4
ag11
aa(lp6028
S'9906284'
p6029
ag3
ag4
ag5
aa(lp6030
S'9894048'
p6031
ag10
ag10
ag11
aa(lp6032
S'9841058'
p6033
ag3
ag4
ag5
aa(lp6034
S'9599243'
p6035
ag10
ag10
ag11
aa(lp6036
S'9393171'
p6037
ag3
ag4
ag5
aa(lp6038
S'9957226'
p6039
ag10
ag4
ag11
aa(lp6040
S'9157453'
p6041
ag10
ag4
ag11
aa(lp6042
S'9568618'
p6043
ag10
ag4
ag11
aa(lp6044
S'9641381'
p6045
ag3
ag4
ag5
aa(lp6046
S'9224983'
p6047
ag3
ag10
ag5
aa(lp6048
S'9410253'
p6049
ag3
ag4
ag5
aa(lp6050
S'9480211'
p6051
ag10
ag4
ag11
aa(lp6052
S'9008561'
p6053
ag10
ag4
ag11
aa(lp6054
S'9518337'
p6055
ag10
ag4
ag11
aa(lp6056
S'9537888'
p6057
ag3
ag4
ag5
aa(lp6058
S'9408026'
p6059
ag10
ag4
ag11
aa(lp6060
S'9722173'
p6061
ag3
ag4
ag5
aa(lp6062
S'9728215'
p6063
ag3
ag4
ag5
aa(lp6064
S'9154516'
p6065
ag3
ag4
ag5
aa(lp6066
S'9988921'
p6067
ag3
ag4
ag5
aa(lp6068
S'9072646'
p6069
ag10
ag4
ag11
aa(lp6070
S'9881786'
p6071
ag3
ag4
ag5
aa(lp6072
S'9896743'
p6073
ag10
ag10
ag11
aa(lp6074
S'9108461'
p6075
ag3
ag4
ag5
aa(lp6076
S'9717977'
p6077
ag10
ag10
ag11
aa(lp6078
S'9805733'
p6079
ag3
ag4
ag5
aa(lp6080
S'9321092'
p6081
ag10
ag4
ag11
aa(lp6082
S'9095839'
p6083
ag10
ag4
ag11
aa(lp6084
S'9408506'
p6085
ag3
ag10
ag5
aa(lp6086
S'9652149'
p6087
ag10
ag4
ag11
aa(lp6088
S'9432148'
p6089
ag10
ag10
ag11
aa(lp6090
S'9819250'
p6091
ag10
ag4
ag11
aa(lp6092
S'9310976'
p6093
ag3
ag4
ag5
aa(lp6094
S'9204538'
p6095
ag10
ag4
ag11
aa(lp6096
S'9341535'
p6097
ag3
ag4
ag5
aa(lp6098
S'9953302'
p6099
ag3
ag4
ag5
aa(lp6100
S'9726418'
p6101
ag3
ag4
ag5
aa(lp6102
S'9360243'
p6103
ag3
ag4
ag5
aa(lp6104
S'9815358'
p6105
ag3
ag4
ag5
aa(lp6106
S'9022289'
p6107
ag10
ag4
ag11
aa(lp6108
S'9902757'
p6109
ag3
ag4
ag5
aa(lp6110
S'9339860'
p6111
ag3
ag10
ag5
aa(lp6112
S'9834533'
p6113
ag3
ag4
ag5
aa(lp6114
S'9665672'
p6115
ag3
ag10
ag5
aa(lp6116
S'9155861'
p6117
ag3
ag4
ag5
aa(lp6118
S'9306384'
p6119
ag10
ag10
ag11
aa(lp6120
S'9321380'
p6121
ag3
ag4
ag5
aa(lp6122
S'9913590'
p6123
ag10
ag4
ag11
aa(lp6124
S'9909903'
p6125
ag3
ag4
ag5
aa(lp6126
S'9345493'
p6127
ag3
ag4
ag5
aa(lp6128
S'9646705'
p6129
ag10
ag4
ag11
aa(lp6130
S'9419364'
p6131
ag10
ag10
ag11
aa(lp6132
S'9418298'
p6133
ag10
ag4
ag11
aa(lp6134
S'9025994'
p6135
ag10
ag4
ag11
aa(lp6136
S'9606711'
p6137
ag10
ag4
ag11
aa(lp6138
S'9697904'
p6139
ag10
ag4
ag11
aa(lp6140
S'9193038'
p6141
ag3
ag4
ag5
aa(lp6142
S'9837371'
p6143
ag3
ag4
ag5
aa(lp6144
S'9276150'
p6145
ag3
ag4
ag5
aa(lp6146
S'9113674'
p6147
ag3
ag10
ag5
aa(lp6148
S'9223303'
p6149
ag3
ag4
ag5
aa(lp6150
S'9519268'
p6151
ag10
ag4
ag11
aa(lp6152
S'9706842'
p6153
ag10
ag4
ag11
aa(lp6154
S'9029095'
p6155
ag3
ag4
ag5
aa(lp6156
S'9227873'
p6157
ag10
ag4
ag11
aa(lp6158
S'9105279'
p6159
ag3
ag4
ag5
aa(lp6160
S'9848263'
p6161
ag3
ag10
ag5
aa(lp6162
S'9005075'
p6163
ag10
ag4
ag11
aa(lp6164
S'9926839'
p6165
ag10
ag10
ag11
aa(lp6166
S'9630153'
p6167
ag3
ag4
ag5
aa(lp6168
S'9823421'
p6169
ag10
ag4
ag11
aa(lp6170
S'9785062'
p6171
ag3
ag4
ag5
aa(lp6172
S'9709990'
p6173
ag3
ag4
ag5
aa(lp6174
S'9803321'
p6175
ag10
ag4
ag11
aa(lp6176
S'9153013'
p6177
ag10
ag10
ag11
aa(lp6178
S'9305113'
p6179
ag10
ag4
ag11
aa(lp6180
S'9606704'
p6181
ag10
ag4
ag11
aa(lp6182
S'9610229'
p6183
ag3
ag4
ag5
aa(lp6184
S'9676996'
p6185
ag10
ag10
ag11
aa(lp6186
S'9692368'
p6187
ag10
ag4
ag11
aa(lp6188
S'9785604'
p6189
ag10
ag4
ag11
aa(lp6190
S'9306384'
p6191
ag3
ag4
ag5
aa(lp6192
S'9768869'
p6193
ag3
ag4
ag5
aa(lp6194
S'9536151'
p6195
ag10
ag4
ag11
aa(lp6196
S'9618669'
p6197
ag3
ag4
ag5
aa(lp6198
S'9679795'
p6199
ag3
ag4
ag5
aa(lp6200
S'9078889'
p6201
ag3
ag4
ag5
aa(lp6202
S'9487451'
p6203
ag10
ag4
ag11
aa(lp6204
S'9066820'
p6205
ag10
ag4
ag11
aa(lp6206
S'9223590'
p6207
ag3
ag4
ag5
aa(lp6208
S'9988186'
p6209
ag3
ag4
ag5
aa(lp6210
S'9226752'
p6211
ag10
ag4
ag11
aa(lp6212
S'9182305'
p6213
ag3
ag4
ag5
aa(lp6214
S'9842836'
p6215
ag3
ag4
ag5
aa(lp6216
S'9337068'
p6217
ag3
ag4
ag5
aa(lp6218
S'9265514'
p6219
ag3
ag4
ag5
aa(lp6220
S'9302340'
p6221
ag3
ag10
ag5
aa(lp6222
S'9013634'
p6223
ag10
ag4
ag11
aa(lp6224
S'9882107'
p6225
ag10
ag4
ag11
aa(lp6226
S'9464295'
p6227
ag10
ag4
ag11
aa(lp6228
S'9877295'
p6229
ag3
ag4
ag5
aa(lp6230
S'9268052'
p6231
ag10
ag10
ag11
aa(lp6232
S'9465162'
p6233
ag10
ag4
ag11
aa(lp6234
S'9030925'
p6235
ag3
ag4
ag5
aa(lp6236
S'9280243'
p6237
ag3
ag4
ag5
aa(lp6238
S'9217512'
p6239
ag3
ag4
ag5
aa(lp6240
S'9648234'
p6241
ag10
ag4
ag11
aa(lp6242
S'9828518'
p6243
ag10
ag10
ag11
aa(lp6244
S'9980800'
p6245
ag10
ag4
ag11
aa(lp6246
S'9931097'
p6247
ag3
ag10
ag5
aa(lp6248
S'9473912'
p6249
ag3
ag4
ag5
aa(lp6250
S'9003658'
p6251
ag3
ag4
ag5
aa(lp6252
S'9436316'
p6253
ag10
ag4
ag11
aa(lp6254
S'9611246'
p6255
ag3
ag4
ag5
aa(lp6256
S'9793168'
p6257
ag3
ag4
ag5
aa(lp6258
S'9516844'
p6259
ag3
ag4
ag5
aa(lp6260
S'9878786'
p6261
ag3
ag4
ag5
aa(lp6262
S'9263652'
p6263
ag3
ag4
ag5
aa(lp6264
S'9649967'
p6265
ag3
ag4
ag5
aa(lp6266
S'9646705'
p6267
ag3
ag4
ag5
aa(lp6268
S'9241544'
p6269
ag3
ag4
ag5
aa(lp6270
S'9034812'
p6271
ag10
ag10
ag11
aa(lp6272
S'9465321'
p6273
ag10
ag4
ag11
aa(lp6274
S'9416381'
p6275
ag3
ag4
ag5
aa(lp6276
S'9235448'
p6277
ag10
ag4
ag11
aa(lp6278
S'9330186'
p6279
ag3
ag4
ag5
aa(lp6280
S'9939547'
p6281
ag10
ag10
ag11
aa(lp6282
S'9555397'
p6283
ag3
ag4
ag5
aa(lp6284
S'9926321'
p6285
ag10
ag4
ag11
aa(lp6286
S'9316069'
p6287
ag10
ag4
ag11
aa(lp6288
S'9450507'
p6289
ag10
ag4
ag11
aa(lp6290
S'9968950'
p6291
ag10
ag4
ag11
aa(lp6292
S'9370366'
p6293
ag10
ag4
ag11
aa(lp6294
S'9498839'
p6295
ag10
ag4
ag11
aa(lp6296
S'9662703'
p6297
ag10
ag4
ag11
aa(lp6298
S'9432194'
p6299
ag10
ag4
ag11
aa(lp6300
S'9171580'
p6301
ag3
ag4
ag5
aa(lp6302
S'9170228'
p6303
ag3
ag4
ag5
aa(lp6304
S'9907012'
p6305
ag3
ag4
ag5
aa(lp6306
S'9917505'
p6307
ag3
ag4
ag5
aa(lp6308
S'9952817'
p6309
ag10
ag4
ag11
aa(lp6310
S'9864759'
p6311
ag10
ag4
ag11
aa(lp6312
S'9532870'
p6313
ag10
ag4
ag11
aa(lp6314
S'9479394'
p6315
ag10
ag4
ag11
aa(lp6316
S'9258563'
p6317
ag3
ag4
ag5
aa(lp6318
S'9254422'
p6319
ag10
ag4
ag11
aa(lp6320
S'9117692'
p6321
ag10
ag4
ag11
aa(lp6322
S'9888049'
p6323
ag3
ag4
ag5
aa(lp6324
S'9855267'
p6325
ag10
ag4
ag11
aa(lp6326
S'9885702'
p6327
ag3
ag10
ag5
aa(lp6328
S'9628616'
p6329
ag3
ag10
ag5
aa(lp6330
S'9569430'
p6331
ag10
ag4
ag11
aa(lp6332
S'9593694'
p6333
ag3
ag10
ag5
aa(lp6334
S'9563400'
p6335
ag3
ag4
ag5
aa(lp6336
S'9639683'
p6337
ag10
ag4
ag11
aa(lp6338
S'9657654'
p6339
ag10
ag10
ag11
aa(lp6340
S'9364970'
p6341
ag10
ag4
ag11
aa(lp6342
S'9195569'
p6343
ag10
ag4
ag11
aa(lp6344
S'9627893'
p6345
ag10
ag4
ag11
aa(lp6346
S'9174582'
p6347
ag3
ag4
ag5
aa(lp6348
S'9675129'
p6349
ag10
ag4
ag11
aa(lp6350
S'9591478'
p6351
ag3
ag4
ag5
aa(lp6352
S'9951877'
p6353
ag10
ag4
ag11
aa(lp6354
S'9333058'
p6355
ag3
ag4
ag5
aa(lp6356
S'9792535'
p6357
ag10
ag4
ag11
aa(lp6358
S'9916140'
p6359
ag10
ag4
ag11
aa(lp6360
S'9713904'
p6361
ag3
ag4
ag5
aa(lp6362
S'9893793'
p6363
ag10
ag4
ag11
aa(lp6364
S'9270026'
p6365
ag3
ag4
ag5
aa(lp6366
S'9892241'
p6367
ag10
ag4
ag11
aa(lp6368
S'9528886'
p6369
ag3
ag10
ag5
aa(lp6370
S'9470267'
p6371
ag10
ag4
ag11
aa(lp6372
S'9460225'
p6373
ag3
ag10
ag5
aa(lp6374
S'9607454'
p6375
ag3
ag4
ag5
aa(lp6376
S'9440307'
p6377
ag3
ag10
ag5
aa(lp6378
S'9102958'
p6379
ag10
ag10
ag11
aa(lp6380
S'9833809'
p6381
ag10
ag10
ag11
aa(lp6382
S'9116057'
p6383
ag10
ag10
ag11
aa(lp6384
S'9287219'
p6385
ag10
ag4
ag11
aa(lp6386
S'9634669'
p6387
ag10
ag4
ag11
aa(lp6388
S'9049304'
p6389
ag3
ag4
ag5
aa(lp6390
S'9488882'
p6391
ag3
ag4
ag5
aa(lp6392
S'9677770'
p6393
ag3
ag10
ag5
aa(lp6394
S'9070290'
p6395
ag10
ag4
ag11
aa(lp6396
S'9369982'
p6397
ag10
ag10
ag11
aa(lp6398
S'9861560'
p6399
ag10
ag4
ag11
aa(lp6400
S'9313233'
p6401
ag3
ag4
ag5
aa(lp6402
S'9503434'
p6403
ag3
ag10
ag5
aa(lp6404
S'9895022'
p6405
ag10
ag10
ag11
aa(lp6406
S'9207016'
p6407
ag10
ag4
ag11
aa(lp6408
S'9630432'
p6409
ag10
ag4
ag11
aa(lp6410
S'9361281'
p6411
ag3
ag10
ag5
aa(lp6412
S'9911265'
p6413
ag3
ag4
ag5
aa(lp6414
S'9443223'
p6415
ag10
ag10
ag11
aa(lp6416
S'9244001'
p6417
ag10
ag4
ag11
aa(lp6418
S'9582125'
p6419
ag10
ag4
ag11
aa(lp6420
S'9995277'
p6421
ag3
ag4
ag5
aa(lp6422
S'9100862'
p6423
ag3
ag10
ag5
aa(lp6424
S'9669962'
p6425
ag3
ag4
ag5
aa(lp6426
S'9608137'
p6427
ag10
ag10
ag11
aa(lp6428
S'9678997'
p6429
ag3
ag4
ag5
aa(lp6430
S'9952042'
p6431
ag10
ag4
ag11
aa(lp6432
S'9107048'
p6433
ag3
ag4
ag5
aa(lp6434
S'9328298'
p6435
ag10
ag4
ag11
aa(lp6436
S'9061162'
p6437
ag10
ag10
ag11
aa(lp6438
S'9728026'
p6439
ag10
ag4
ag11
aa(lp6440
S'9836853'
p6441
ag10
ag4
ag11
aa(lp6442
S'9378093'
p6443
ag10
ag4
ag11
aa(lp6444
S'9702852'
p6445
ag3
ag4
ag5
aa(lp6446
S'9328093'
p6447
ag10
ag10
ag11
aa(lp6448
S'9706954'
p6449
ag10
ag4
ag11
aa(lp6450
S'9894600'
p6451
ag10
ag4
ag11
aa(lp6452
S'9803881'
p6453
ag3
ag10
ag5
aa(lp6454
S'9253884'
p6455
ag3
ag4
ag5
aa(lp6456
S'9016179'
p6457
ag10
ag4
ag11
aa(lp6458
S'9573716'
p6459
ag10
ag4
ag11
aa(lp6460
S'9668142'
p6461
ag3
ag4
ag5
aa(lp6462
S'9120519'
p6463
ag3
ag4
ag5
aa(lp6464
S'9417075'
p6465
ag3
ag4
ag5
aa(lp6466
S'9817661'
p6467
ag3
ag4
ag5
aa(lp6468
S'9690658'
p6469
ag3
ag10
ag5
aa(lp6470
S'9795183'
p6471
ag3
ag4
ag5
aa(lp6472
S'9766971'
p6473
ag10
ag4
ag11
aa(lp6474
S'9926617'
p6475
ag10
ag10
ag11
aa(lp6476
S'9444132'
p6477
ag10
ag4
ag11
aa(lp6478
S'9524744'
p6479
ag3
ag4
ag5
aa(lp6480
S'9532870'
p6481
ag3
ag4
ag5
aa(lp6482
S'9716478'
p6483
ag10
ag4
ag11
aa(lp6484
S'9467434'
p6485
ag3
ag4
ag5
aa(lp6486
S'9466897'
p6487
ag10
ag4
ag11
aa(lp6488
S'9394122'
p6489
ag3
ag4
ag5
aa(lp6490
S'9636409'
p6491
ag10
ag4
ag11
aa(lp6492
S'9445105'
p6493
ag3
ag4
ag5
aa(lp6494
S'9649967'
p6495
ag10
ag4
ag11
aa(lp6496
S'9636690'
p6497
ag3
ag4
ag5
aa(lp6498
S'9509846'
p6499
ag3
ag4
ag5
aa(lp6500
S'9820271'
p6501
ag3
ag4
ag5
aa(lp6502
S'9022789'
p6503
ag3
ag4
ag5
aa(lp6504
S'9732234'
p6505
ag10
ag4
ag11
aa(lp6506
S'9935448'
p6507
ag10
ag4
ag11
aa(lp6508
S'9283486'
p6509
ag3
ag4
ag5
aa(lp6510
S'9256532'
p6511
ag3
ag10
ag5
aa(lp6512
S'9568160'
p6513
ag10
ag4
ag11
aa(lp6514
S'9916542'
p6515
ag3
ag4
ag5
aa(lp6516
S'9140556'
p6517
ag3
ag4
ag5
aa(lp6518
S'9225581'
p6519
ag3
ag4
ag5
aa(lp6520
S'9266652'
p6521
ag3
ag4
ag5
aa(lp6522
S'9121030'
p6523
ag3
ag4
ag5
aa(lp6524
S'9651690'
p6525
ag10
ag4
ag11
aa(lp6526
S'9575193'
p6527
ag10
ag4
ag11
aa(lp6528
S'9850534'
p6529
ag10
ag4
ag11
aa(lp6530
S'9994363'
p6531
ag3
ag4
ag5
aa(lp6532
S'9978579'
p6533
ag10
ag4
ag11
aa(lp6534
S'9440518'
p6535
ag3
ag4
ag5
aa(lp6536
S'9527882'
p6537
ag10
ag4
ag11
aa(lp6538
S'9925376'
p6539
ag10
ag4
ag11
aa(lp6540
S'9115033'
p6541
ag3
ag4
ag5
aa(lp6542
S'9835291'
p6543
ag10
ag4
ag11
aa(lp6544
S'9780165'
p6545
ag3
ag4
ag5
aa(lp6546
S'9133464'
p6547
ag3
ag4
ag5
aa(lp6548
S'9719243'
p6549
ag10
ag4
ag11
aa(lp6550
S'9017252'
p6551
ag10
ag10
ag11
aa(lp6552
S'9632922'
p6553
ag10
ag4
ag11
aa(lp6554
S'9218596'
p6555
ag10
ag4
ag11
aa(lp6556
S'9590003'
p6557
ag3
ag4
ag5
aa(lp6558
S'9101951'
p6559
ag10
ag4
ag11
aa(lp6560
S'9611953'
p6561
ag10
ag4
ag11
aa(lp6562
S'9072281'
p6563
ag3
ag4
ag5
aa(lp6564
S'9037952'
p6565
ag10
ag4
ag11
aa(lp6566
S'9964777'
p6567
ag10
ag4
ag11
aa(lp6568
S'9781154'
p6569
ag10
ag4
ag11
aa(lp6570
S'9871731'
p6571
ag10
ag4
ag11
aa(lp6572
S'9438149'
p6573
ag3
ag10
ag5
aa(lp6574
S'9873103'
p6575
ag10
ag4
ag11
aa(lp6576
S'9797627'
p6577
ag3
ag4
ag5
aa(lp6578
S'9200057'
p6579
ag3
ag4
ag5
aa(lp6580
S'9817141'
p6581
ag10
ag4
ag11
aa(lp6582
S'9436316'
p6583
ag3
ag4
ag5
aa(lp6584
S'9718881'
p6585
ag3
ag10
ag5
aa(lp6586
S'9223980'
p6587
ag10
ag10
ag11
aa(lp6588
S'9686617'
p6589
ag10
ag4
ag11
aa(lp6590
S'9673712'
p6591
ag10
ag4
ag11
aa(lp6592
S'9894795'
p6593
ag3
ag4
ag5
aa(lp6594
S'9594682'
p6595
ag3
ag4
ag5
aa(lp6596
S'9100442'
p6597
ag3
ag4
ag5
aa(lp6598
S'9456499'
p6599
ag10
ag4
ag11
aa(lp6600
S'9659701'
p6601
ag3
ag4
ag5
aa(lp6602
S'9854269'
p6603
ag10
ag4
ag11
aa(lp6604
S'9948298'
p6605
ag3
ag4
ag5
aa(lp6606
S'9614982'
p6607
ag3
ag4
ag5
aa(lp6608
S'9609632'
p6609
ag3
ag4
ag5
aa(lp6610
S'9607454'
p6611
ag10
ag4
ag11
aa(lp6612
S'9793168'
p6613
ag10
ag4
ag11
aa(lp6614
S'9950320'
p6615
ag3
ag4
ag5
aa(lp6616
S'9335752'
p6617
ag10
ag4
ag11
aa(lp6618
S'9144384'
p6619
ag3
ag4
ag5
aa(lp6620
S'9713411'
p6621
ag3
ag10
ag5
aa(lp6622
S'9019907'
p6623
ag3
ag4
ag5
aa(lp6624
S'9040456'
p6625
ag3
ag4
ag5
aa(lp6626
S'9942553'
p6627
ag3
ag4
ag5
aa(lp6628
S'9456266'
p6629
ag3
ag4
ag5
aa(lp6630
S'9846846'
p6631
ag3
ag4
ag5
aa(lp6632
S'9533157'
p6633
ag10
ag4
ag11
aa(lp6634
S'9837054'
p6635
ag3
ag4
ag5
aa(lp6636
S'9061666'
p6637
ag10
ag10
ag11
aa(lp6638
S'9523022'
p6639
ag10
ag4
ag11
aa(lp6640
S'9872828'
p6641
ag10
ag10
ag11
aa(lp6642
S'9072758'
p6643
ag10
ag4
ag11
aa(lp6644
S'9623194'
p6645
ag3
ag4
ag5
aa(lp6646
S'9891421'
p6647
ag3
ag4
ag5
aa(lp6648
S'9381995'
p6649
ag3
ag4
ag5
aa(lp6650
S'9240515'
p6651
ag3
ag4
ag5
aa(lp6652
S'9763898'
p6653
ag10
ag4
ag11
aa(lp6654
S'9808689'
p6655
ag3
ag4
ag5
aa(lp6656
S'9481542'
p6657
ag3
ag4
ag5
aa(lp6658
S'9907402'
p6659
ag3
ag10
ag5
aa(lp6660
S'9253390'
p6661
ag3
ag10
ag5
aa(lp6662
S'9361281'
p6663
ag10
ag4
ag11
aa(lp6664
S'9708289'
p6665
ag3
ag10
ag5
aa(lp6666
S'9191465'
p6667
ag3
ag4
ag5
aa(lp6668
S'9132486'
p6669
ag3
ag4
ag5
aa(lp6670
S'9777014'
p6671
ag3
ag4
ag5
aa(lp6672
S'9856356'
p6673
ag10
ag4
ag11
aa(lp6674
S'9703469'
p6675
ag10
ag4
ag11
aa(lp6676
S'9480533'
p6677
ag3
ag4
ag5
aa(lp6678
S'9549906'
p6679
ag10
ag10
ag11
aa(lp6680
S'9789295'
p6681
ag3
ag4
ag5
aa(lp6682
S'9666715'
p6683
ag3
ag4
ag5
aa(lp6684
S'9927360'
p6685
ag3
ag4
ag5
aa(lp6686
S'9212530'
p6687
ag10
ag4
ag11
aa(lp6688
S'9460076'
p6689
ag10
ag4
ag11
aa(lp6690
S'9351263'
p6691
ag10
ag4
ag11
aa(lp6692
S'9194860'
p6693
ag10
ag4
ag11
aa(lp6694
S'9038962'
p6695
ag10
ag4
ag11
aa(lp6696
S'9784803'
p6697
ag3
ag10
ag5
aa(lp6698
S'9620167'
p6699
ag10
ag4
ag11
aa(lp6700
S'9410021'
p6701
ag10
ag4
ag11
aa(lp6702
S'9299361'
p6703
ag10
ag4
ag11
aa(lp6704
S'9426421'
p6705
ag3
ag10
ag5
aa(lp6706
S'9282203'
p6707
ag10
ag10
ag11
aa(lp6708
S'9522615'
p6709
ag3
ag4
ag5
aa(lp6710
S'9893482'
p6711
ag10
ag4
ag11
aa(lp6712
S'9573946'
p6713
ag10
ag4
ag11
aa(lp6714
S'9221040'
p6715
ag10
ag4
ag11
aa(lp6716
S'9531050'
p6717
ag10
ag4
ag11
aa(lp6718
S'9770617'
p6719
ag10
ag4
ag11
aa(lp6720
S'9516323'
p6721
ag3
ag4
ag5
aa(lp6722
S'9157758'
p6723
ag3
ag10
ag5
aa(lp6724
S'9851631'
p6725
ag10
ag4
ag11
aa(lp6726
S'9573142'
p6727
ag10
ag4
ag11
aa(lp6728
S'9878614'
p6729
ag10
ag4
ag11
aa(lp6730
S'9302260'
p6731
ag10
ag10
ag11
aa(lp6732
S'9924366'
p6733
ag3
ag4
ag5
aa(lp6734
S'9010060'
p6735
ag10
ag4
ag11
aa(lp6736
S'9345249'
p6737
ag10
ag4
ag11
aa(lp6738
S'9280320'
p6739
ag3
ag4
ag5
aa(lp6740
S'9909861'
p6741
ag3
ag4
ag5
aa(lp6742
S'9626171'
p6743
ag10
ag4
ag11
aa(lp6744
S'9140040'
p6745
ag10
ag4
ag11
aa(lp6746
S'9746090'
p6747
ag3
ag10
ag5
aa(lp6748
S'9400725'
p6749
ag3
ag4
ag5
aa(lp6750
S'9033937'
p6751
ag10
ag4
ag11
aa(lp6752
S'9291210'
p6753
ag3
ag4
ag5
aa(lp6754
S'9257071'
p6755
ag10
ag4
ag11
aa(lp6756
S'9884710'
p6757
ag3
ag4
ag5
aa(lp6758
S'9166930'
p6759
ag3
ag4
ag5
aa(lp6760
S'9496633'
p6761
ag10
ag4
ag11
aa(lp6762
S'9234555'
p6763
ag3
ag4
ag5
aa(lp6764
S'9432194'
p6765
ag3
ag10
ag5
aa(lp6766
S'9999295'
p6767
ag3
ag4
ag5
aa(lp6768
S'9956822'
p6769
ag3
ag4
ag5
aa(lp6770
S'9068197'
p6771
ag3
ag10
ag5
aa(lp6772
S'9923601'
p6773
ag10
ag4
ag11
aa(lp6774
S'9018489'
p6775
ag3
ag4
ag5
aa(lp6776
S'9880782'
p6777
ag3
ag4
ag5
aa(lp6778
S'9154214'
p6779
ag10
ag10
ag11
aa(lp6780
S'9260036'
p6781
ag10
ag4
ag11
aa(lp6782
S'9507791'
p6783
ag10
ag4
ag11
aa(lp6784
S'9083500'
p6785
ag3
ag4
ag5
aa(lp6786
S'9540406'
p6787
ag10
ag4
ag11
aa(lp6788
S'9761200'
p6789
ag3
ag4
ag5
aa(lp6790
S'9967932'
p6791
ag3
ag4
ag5
aa(lp6792
S'9113501'
p6793
ag10
ag4
ag11
aa(lp6794
S'9688844'
p6795
ag3
ag4
ag5
aa(lp6796
S'9735276'
p6797
ag3
ag4
ag5
aa(lp6798
S'9456548'
p6799
ag3
ag4
ag5
aa(lp6800
S'9872010'
p6801
ag3
ag4
ag5
aa(lp6802
S'9462266'
p6803
ag3
ag10
ag5
aa(lp6804
S'9501871'
p6805
ag10
ag4
ag11
aa(lp6806
S'9871608'
p6807
ag3
ag4
ag5
aa(lp6808
S'9368106'
p6809
ag10
ag4
ag11
aa(lp6810
S'9301426'
p6811
ag3
ag4
ag5
aa(lp6812
S'9017419'
p6813
ag10
ag4
ag11
aa(lp6814
S'9901199'
p6815
ag3
ag4
ag5
aa(lp6816
S'9637053'
p6817
ag10
ag4
ag11
aa(lp6818
S'9943317'
p6819
ag10
ag4
ag11
aa(lp6820
S'9960832'
p6821
ag10
ag4
ag11
aa(lp6822
S'9228372'
p6823
ag10
ag4
ag11
aa(lp6824
S'9398062'
p6825
ag3
ag10
ag5
aa(lp6826
S'9510301'
p6827
ag10
ag4
ag11
aa(lp6828
S'9081635'
p6829
ag3
ag4
ag5
aa(lp6830
S'9106510'
p6831
ag3
ag4
ag5
aa(lp6832
S'9090833'
p6833
ag3
ag4
ag5
aa(lp6834
S'9362978'
p6835
ag10
ag4
ag11
aa(lp6836
S'9387992'
p6837
ag10
ag4
ag11
aa(lp6838
S'9921260'
p6839
ag10
ag4
ag11
aa(lp6840
S'9252576'
p6841
ag3
ag4
ag5
aa(lp6842
S'9466873'
p6843
ag10
ag4
ag11
aa(lp6844
S'9295533'
p6845
ag10
ag4
ag11
aa(lp6846
S'9531050'
p6847
ag3
ag4
ag5
aa(lp6848
S'9935439'
p6849
ag3
ag4
ag5
aa(lp6850
S'9177571'
p6851
ag3
ag4
ag5
aa(lp6852
S'9602012'
p6853
ag10
ag4
ag11
aa(lp6854
S'9647234'
p6855
ag10
ag4
ag11
aa(lp6856
S'9278158'
p6857
ag10
ag10
ag11
aa(lp6858
S'9806950'
p6859
ag10
ag10
ag11
aa(lp6860
S'9263547'
p6861
ag10
ag4
ag11
aa(lp6862
S'9701645'
p6863
ag3
ag4
ag5
aa(lp6864
S'9167589'
p6865
ag10
ag4
ag11
aa(lp6866
S'9642569'
p6867
ag3
ag4
ag5
aa(lp6868
S'9426421'
p6869
ag10
ag4
ag11
aa(lp6870
S'9234574'
p6871
ag10
ag4
ag11
aa(lp6872
S'9614515'
p6873
ag10
ag10
ag11
aa(lp6874
S'9247140'
p6875
ag10
ag4
ag11
aa(lp6876
S'9444132'
p6877
ag3
ag4
ag5
aa(lp6878
S'9263025'
p6879
ag3
ag4
ag5
aa(lp6880
S'9777033'
p6881
ag10
ag4
ag11
aa(lp6882
S'9018291'
p6883
ag3
ag4
ag5
aa(lp6884
S'9161012'
p6885
ag10
ag4
ag11
aa(lp6886
S'9594253'
p6887
ag3
ag4
ag5
aa(lp6888
S'9795183'
p6889
ag10
ag4
ag11
aa(lp6890
S'9149679'
p6891
ag3
ag10
ag5
aa(lp6892
S'9463233'
p6893
ag10
ag4
ag11
aa(lp6894
S'9248131'
p6895
ag10
ag10
ag11
aa(lp6896
S'9095103'
p6897
ag10
ag4
ag11
aa(lp6898
S'9450853'
p6899
ag10
ag4
ag11
aa(lp6900
S'9518910'
p6901
ag10
ag4
ag11
aa(lp6902
S'9366178'
p6903
ag3
ag4
ag5
aa(lp6904
S'9216735'
p6905
ag3
ag4
ag5
aa(lp6906
S'9874344'
p6907
ag3
ag4
ag5
aa(lp6908
S'9549868'
p6909
ag10
ag4
ag11
aa(lp6910
S'9365192'
p6911
ag3
ag4
ag5
aa(lp6912
S'9913323'
p6913
ag10
ag4
ag11
aa(lp6914
S'9725914'
p6915
ag10
ag4
ag11
aa(lp6916
S'9495409'
p6917
ag3
ag4
ag5
aa(lp6918
S'9016121'
p6919
ag3
ag4
ag5
aa(lp6920
S'9888600'
p6921
ag3
ag4
ag5
aa(lp6922
S'9874784'
p6923
ag3
ag4
ag5
aa(lp6924
S'9453274'
p6925
ag3
ag10
ag5
aa(lp6926
S'9399129'
p6927
ag3
ag4
ag5
aa(lp6928
S'9697904'
p6929
ag3
ag4
ag5
aa(lp6930
S'9915764'
p6931
ag3
ag4
ag5
aa(lp6932
S'9916319'
p6933
ag3
ag10
ag5
aa(lp6934
S'9834533'
p6935
ag10
ag4
ag11
aa(lp6936
S'9771440'
p6937
ag3
ag4
ag5
aa(lp6938
S'9606218'
p6939
ag10
ag4
ag11
aa(lp6940
S'9080864'
p6941
ag10
ag4
ag11
aa(lp6942
S'9641083'
p6943
ag3
ag4
ag5
aa(lp6944
S'9031961'
p6945
ag10
ag4
ag11
aa(lp6946
S'9269655'
p6947
ag10
ag4
ag11
aa(lp6948
S'9400127'
p6949
ag10
ag4
ag11
aa(lp6950
S'9781279'
p6951
ag10
ag4
ag11
aa(lp6952
S'9421302'
p6953
ag10
ag4
ag11
aa(lp6954
S'9549644'
p6955
ag10
ag4
ag11
aa(lp6956
S'9934795'
p6957
ag10
ag4
ag11
aa(lp6958
S'9353670'
p6959
ag10
ag4
ag11
aa(lp6960
S'9949011'
p6961
ag3
ag4
ag5
aa(lp6962
S'9947321'
p6963
ag3
ag10
ag5
aa(lp6964
S'9404954'
p6965
ag10
ag4
ag11
aa(lp6966
S'9597903'
p6967
ag3
ag4
ag5
aa(lp6968
S'9679181'
p6969
ag10
ag4
ag11
aa(lp6970
S'9150439'
p6971
ag3
ag4
ag5
aa(lp6972
S'9601644'
p6973
ag10
ag4
ag11
aa(lp6974
S'9305065'
p6975
ag10
ag10
ag11
aa(lp6976
S'9062962'
p6977
ag3
ag4
ag5
aa(lp6978
S'9113501'
p6979
ag3
ag4
ag5
aa(lp6980
S'9272118'
p6981
ag3
ag4
ag5
aa(lp6982
S'9274245'
p6983
ag10
ag4
ag11
aa(lp6984
S'9416102'
p6985
ag3
ag10
ag5
aa(lp6986
S'9176200'
p6987
ag10
ag4
ag11
aa(lp6988
S'9004669'
p6989
ag3
ag4
ag5
aa(lp6990
S'9983798'
p6991
ag10
ag4
ag11
aa(lp6992
S'9002316'
p6993
ag3
ag10
ag5
aa(lp6994
S'9401956'
p6995
ag10
ag4
ag11
aa(lp6996
S'9646687'
p6997
ag10
ag4
ag11
aa(lp6998
S'9954937'
p6999
ag10
ag10
ag11
aa(lp7000
S'9509417'
p7001
ag3
ag10
ag5
aa(lp7002
S'9181583'
p7003
ag10
ag4
ag11
aa(lp7004
S'9464295'
p7005
ag3
ag4
ag5
aa(lp7006
S'9052207'
p7007
ag10
ag4
ag11
aa(lp7008
S'9452247'
p7009
ag3
ag4
ag5
aa(lp7010
S'9763419'
p7011
ag10
ag4
ag11
aa(lp7012
S'9103811'
p7013
ag3
ag4
ag5
aa(lp7014
S'9273362'
p7015
ag10
ag4
ag11
aa(lp7016
S'9244537'
p7017
ag10
ag4
ag11
aa(lp7018
S'9436187'
p7019
ag10
ag4
ag11
aa(lp7020
S'9876530'
p7021
ag3
ag4
ag5
aa(lp7022
S'9914231'
p7023
ag3
ag4
ag5
aa(lp7024
S'9521440'
p7025
ag10
ag4
ag11
aa(lp7026
S'9772977'
p7027
ag3
ag4
ag5
aa(lp7028
S'9290346'
p7029
ag10
ag4
ag11
aa(lp7030
S'9276291'
p7031
ag10
ag4
ag11
aa(lp7032
S'9597250'
p7033
ag3
ag4
ag5
aa(lp7034
S'9260515'
p7035
ag3
ag4
ag5
aa(lp7036
S'9637170'
p7037
ag3
ag4
ag5
aa(lp7038
S'9100442'
p7039
ag10
ag4
ag11
aa(lp7040
S'9008322'
p7041
ag10
ag10
ag11
aa(lp7042
S'9409198'
p7043
ag3
ag4
ag5
aa(lp7044
S'9747094'
p7045
ag3
ag4
ag5
aa(lp7046
S'9023407'
p7047
ag3
ag4
ag5
aa(lp7048
S'9982698'
p7049
ag10
ag4
ag11
aa(lp7050
S'9417841'
p7051
ag3
ag4
ag5
aa(lp7052
S'9787204'
p7053
ag10
ag4
ag11
aa(lp7054
S'9483335'
p7055
ag10
ag4
ag11
aa(lp7056
S'9070903'
p7057
ag10
ag10
ag11
aa(lp7058
S'9732234'
p7059
ag3
ag4
ag5
aa(lp7060
S'9399980'
p7061
ag3
ag4
ag5
aa(lp7062
S'9771624'
p7063
ag10
ag4
ag11
aa(lp7064
S'9200458'
p7065
ag3
ag4
ag5
aa(lp7066
S'9432102'
p7067
ag3
ag4
ag5
aa(lp7068
S'9862741'
p7069
ag3
ag4
ag5
aa(lp7070
S'9656070'
p7071
ag3
ag4
ag5
aa(lp7072
S'9427182'
p7073
ag10
ag4
ag11
aa(lp7074
S'9589735'
p7075
ag3
ag4
ag5
aa(lp7076
S'9877790'
p7077
ag3
ag4
ag5
aa(lp7078
S'9477362'
p7079
ag10
ag4
ag11
aa(lp7080
S'9219596'
p7081
ag10
ag10
ag11
aa(lp7082
S'9714958'
p7083
ag3
ag4
ag5
aa(lp7084
S'9269655'
p7085
ag3
ag4
ag5
aa(lp7086
S'9768869'
p7087
ag10
ag4
ag11
aa(lp7088
S'9919343'
p7089
ag3
ag4
ag5
aa(lp7090
S'9824703'
p7091
ag10
ag4
ag11
aa(lp7092
S'9451281'
p7093
ag10
ag4
ag11
aa(lp7094
S'9891691'
p7095
ag10
ag10
ag11
aa(lp7096
S'9161012'
p7097
ag3
ag4
ag5
aa(lp7098
S'9137556'
p7099
ag3
ag4
ag5
aa(lp7100
S'9446305'
p7101
ag3
ag10
ag5
aa(lp7102
S'9341240'
p7103
ag3
ag10
ag5
aa(lp7104
S'9329159'
p7105
ag10
ag10
ag11
aa(lp7106
S'9957519'
p7107
ag3
ag10
ag5
aa(lp7108
S'9700163'
p7109
ag3
ag4
ag5
aa(lp7110
S'9061805'
p7111
ag3
ag4
ag5
aa(lp7112
S'9129011'
p7113
ag10
ag4
ag11
aa(lp7114
S'9608737'
p7115
ag3
ag4
ag5
aa(lp7116
S'9924324'
p7117
ag10
ag4
ag11
aa(lp7118
S'9326076'
p7119
ag10
ag4
ag11
aa(lp7120
S'9606704'
p7121
ag3
ag4
ag5
aa(lp7122
S'9681551'
p7123
ag10
ag4
ag11
aa(lp7124
S'9091787'
p7125
ag3
ag4
ag5
aa(lp7126
S'9262046'
p7127
ag10
ag4
ag11
aa(lp7128
S'9382501'
p7129
ag3
ag4
ag5
aa(lp7130
S'9991018'
p7131
ag3
ag4
ag5
aa(lp7132
S'9735276'
p7133
ag10
ag4
ag11
aa(lp7134
S'9949467'
p7135
ag3
ag4
ag5
aa(lp7136
S'9627172'
p7137
ag3
ag4
ag5
aa(lp7138
S'9501860'
p7139
ag3
ag4
ag5
aa(lp7140
S'9898713'
p7141
ag10
ag4
ag11
aa(lp7142
S'9641700'
p7143
ag10
ag4
ag11
aa(lp7144
S'9272133'
p7145
ag10
ag4
ag11
aa(lp7146
S'9353397'
p7147
ag3
ag4
ag5
aa(lp7148
S'9549868'
p7149
ag3
ag4
ag5
aa(lp7150
S'9789767'
p7151
ag10
ag4
ag11
aa(lp7152
S'9467722'
p7153
ag3
ag10
ag5
aa(lp7154
S'9559860'
p7155
ag10
ag4
ag11
aa(lp7156
S'9873103'
p7157
ag3
ag4
ag5
aa(lp7158
S'9974824'
p7159
ag10
ag4
ag11
aa(lp7160
S'9862741'
p7161
ag10
ag4
ag11
aa(lp7162
S'9900967'
p7163
ag3
ag4
ag5
aa(lp7164
S'9914317'
p7165
ag3
ag4
ag5
aa(lp7166
S'9661248'
p7167
ag3
ag4
ag5
aa(lp7168
S'9508788'
p7169
ag3
ag4
ag5
aa(lp7170
S'9679795'
p7171
ag10
ag4
ag11
aa(lp7172
S'9535191'
p7173
ag10
ag4
ag11
aa(lp7174
S'9551360'
p7175
ag10
ag4
ag11
aa(lp7176
S'9455502'
p7177
ag10
ag4
ag11
aa(lp7178
S'9460109'
p7179
ag3
ag4
ag5
aa(lp7180
S'9030296'
p7181
ag10
ag4
ag11
aa(lp7182
S'9289800'
p7183
ag10
ag4
ag11
aa(lp7184
S'9706954'
p7185
ag3
ag4
ag5
aa(lp7186
S'9384119'
p7187
ag3
ag4
ag5
aa(lp7188
S'9098924'
p7189
ag10
ag4
ag11
aa(lp7190
S'9753871'
p7191
ag10
ag4
ag11
aa(lp7192
S'9938236'
p7193
ag10
ag4
ag11
aa(lp7194
S'9316495'
p7195
ag10
ag4
ag11
aa(lp7196
S'9810692'
p7197
ag3
ag4
ag5
aa(lp7198
S'9159961'
p7199
ag10
ag4
ag11
aa(lp7200
S'9486748'
p7201
ag3
ag10
ag5
aa(lp7202
S'9590699'
p7203
ag3
ag4
ag5
aa(lp7204
S'9886575'
p7205
ag10
ag4
ag11
aa(lp7206
S'9102297'
p7207
ag3
ag4
ag5
aa(lp7208
S'9333574'
p7209
ag3
ag4
ag5
aa(lp7210
S'9821149'
p7211
ag3
ag4
ag5
aa(lp7212
S'9253390'
p7213
ag10
ag4
ag11
aa(lp7214
S'9382139'
p7215
ag10
ag4
ag11
aa(lp7216
S'9487409'
p7217
ag3
ag4
ag5
aa(lp7218
S'9575193'
p7219
ag3
ag4
ag5
aa(lp7220
S'9858747'
p7221
ag10
ag4
ag11
aa(lp7222
S'9355112'
p7223
ag10
ag4
ag11
aa(lp7224
S'9062483'
p7225
ag3
ag10
ag5
aa(lp7226
S'9674667'
p7227
ag3
ag4
ag5
aa(lp7228
S'9089866'
p7229
ag3
ag4
ag5
aa(lp7230
S'9762600'
p7231
ag10
ag10
ag11
aa(lp7232
S'9686777'
p7233
ag10
ag10
ag11
aa(lp7234
S'9197546'
p7235
ag3
ag4
ag5
aa(lp7236
S'9960949'
p7237
ag3
ag4
ag5
aa(lp7238
S'9193363'
p7239
ag3
ag4
ag5
aa(lp7240
S'9949011'
p7241
ag10
ag4
ag11
aa(lp7242
S'9523138'
p7243
ag3
ag4
ag5
aa(lp7244
S'9136484'
p7245
ag3
ag4
ag5
aa(lp7246
S'9294354'
p7247
ag3
ag4
ag5
aa(lp7248
S'9955443'
p7249
ag10
ag4
ag11
aa(lp7250
S'9303781'
p7251
ag10
ag4
ag11
aa(lp7252
S'9023935'
p7253
ag10
ag4
ag11
aa(lp7254
S'9034963'
p7255
ag3
ag4
ag5
aa(lp7256
S'9338346'
p7257
ag10
ag4
ag11
aa(lp7258
S'9434318'
p7259
ag10
ag4
ag11
aa(lp7260
S'9467563'
p7261
ag10
ag4
ag11
aa(lp7262
S'9048789'
p7263
ag10
ag4
ag11
aa(lp7264
S'9867611'
p7265
ag10
ag4
ag11
aa(lp7266
S'9409550'
p7267
ag3
ag4
ag5
aa(lp7268
S'9794849'
p7269
ag10
ag4
ag11
aa(lp7270
S'9872535'
p7271
ag10
ag4
ag11
aa(lp7272
S'9771727'
p7273
ag10
ag10
ag11
aa(lp7274
S'9289921'
p7275
ag3
ag4
ag5
aa(lp7276
S'9866765'
p7277
ag10
ag4
ag11
aa(lp7278
S'9278158'
p7279
ag3
ag10
ag5
aa(lp7280
S'9398272'
p7281
ag3
ag4
ag5
aa(lp7282
S'9273362'
p7283
ag3
ag4
ag5
aa(lp7284
S'9274833'
p7285
ag10
ag4
ag11
aa(lp7286
S'9526432'
p7287
ag10
ag4
ag11
aa(lp7288
S'9663968'
p7289
ag10
ag4
ag11
aa(lp7290
S'9632586'
p7291
ag3
ag4
ag5
aa(lp7292
S'9780275'
p7293
ag10
ag10
ag11
aa(lp7294
S'9432585'
p7295
ag10
ag10
ag11
aa(lp7296
S'9102258'
p7297
ag3
ag4
ag5
aa(lp7298
S'9597148'
p7299
ag3
ag10
ag5
aa(lp7300
S'9614429'
p7301
ag10
ag4
ag11
aa(lp7302
S'9387265'
p7303
ag10
ag4
ag11
aa(lp7304
S'9838317'
p7305
ag3
ag4
ag5
aa(lp7306
S'9017909'
p7307
ag10
ag4
ag11
aa(lp7308
S'9836553'
p7309
ag10
ag4
ag11
aa(lp7310
S'9616919'
p7311
ag10
ag10
ag11
aa(lp7312
S'9355129'
p7313
ag3
ag4
ag5
aa(lp7314
S'9082640'
p7315
ag10
ag4
ag11
aa(lp7316
S'9449511'
p7317
ag3
ag4
ag5
aa(lp7318
S'9953183'
p7319
ag10
ag10
ag11
aa(lp7320
S'9376298'
p7321
ag3
ag4
ag5
aa(lp7322
S'9323403'
p7323
ag3
ag4
ag5
aa(lp7324
S'9905276'
p7325
ag10
ag10
ag11
aa(lp7326
S'9686777'
p7327
ag3
ag4
ag5
aa(lp7328
S'9241014'
p7329
ag3
ag10
ag5
aa(lp7330
S'9996086'
p7331
ag3
ag4
ag5
aa(lp7332
S'9821480'
p7333
ag10
ag4
ag11
aa(lp7334
S'9715626'
p7335
ag10
ag4
ag11
aa(lp7336
S'9209042'
p7337
ag10
ag4
ag11
aa(lp7338
S'9880717'
p7339
ag3
ag4
ag5
aa(lp7340
S'9807724'
p7341
ag3
ag4
ag5
aa(lp7342
S'9058469'
p7343
ag10
ag4
ag11
aa(lp7344
S'9419379'
p7345
ag10
ag4
ag11
aa(lp7346
S'9290697'
p7347
ag3
ag4
ag5
aa(lp7348
S'9310472'
p7349
ag10
ag4
ag11
aa(lp7350
S'9138467'
p7351
ag3
ag4
ag5
aa(lp7352
S'9695379'
p7353
ag3
ag4
ag5
aa(lp7354
S'9642695'
p7355
ag10
ag10
ag11
aa(lp7356
S'9632922'
p7357
ag3
ag4
ag5
aa(lp7358
S'9427002'
p7359
ag3
ag4
ag5
aa(lp7360
S'9706842'
p7361
ag3
ag4
ag5
aa(lp7362
S'9916274'
p7363
ag3
ag4
ag5
aa(lp7364
S'9150875'
p7365
ag3
ag4
ag5
aa(lp7366
S'9382719'
p7367
ag3
ag4
ag5
aa(lp7368
S'9155861'
p7369
ag10
ag4
ag11
aa(lp7370
S'9272118'
p7371
ag10
ag4
ag11
aa(lp7372
S'9929413'
p7373
ag10
ag4
ag11
aa(lp7374
S'9314305'
p7375
ag10
ag4
ag11
aa(lp7376
S'9563885'
p7377
ag10
ag4
ag11
aa(lp7378
S'9948322'
p7379
ag3
ag4
ag5
aa(lp7380
S'9323439'
p7381
ag10
ag4
ag11
aa(lp7382
S'9828044'
p7383
ag3
ag4
ag5
aa(lp7384
S'9256066'
p7385
ag3
ag4
ag5
aa(lp7386
S'9685238'
p7387
ag3
ag4
ag5
aa(lp7388
S'9886746'
p7389
ag10
ag4
ag11
aa(lp7390
S'9270239'
p7391
ag3
ag4
ag5
aa(lp7392
S'9658955'
p7393
ag3
ag4
ag5
aa(lp7394
S'9853065'
p7395
ag3
ag4
ag5
aa(lp7396
S'9332085'
p7397
ag3
ag10
ag5
aa(lp7398
S'9942724'
p7399
ag10
ag4
ag11
aa(lp7400
S'9709284'
p7401
ag10
ag4
ag11
aa(lp7402
S'9070442'
p7403
ag10
ag4
ag11
aa(lp7404
S'9040390'
p7405
ag3
ag4
ag5
aa(lp7406
S'9219500'
p7407
ag3
ag4
ag5
aa(lp7408
S'9468412'
p7409
ag10
ag4
ag11
aa(lp7410
S'9197546'
p7411
ag10
ag4
ag11
aa(lp7412
S'9115033'
p7413
ag10
ag4
ag11
aa(lp7414
S'9442882'
p7415
ag10
ag4
ag11
aa(lp7416
S'9698980'
p7417
ag3
ag4
ag5
aa(lp7418
S'9230504'
p7419
ag3
ag4
ag5
aa(lp7420
S'9519898'
p7421
ag10
ag4
ag11
aa(lp7422
S'9211261'
p7423
ag3
ag4
ag5
aa(lp7424
S'9162906'
p7425
ag3
ag4
ag5
aa(lp7426
S'9154257'
p7427
ag10
ag4
ag11
aa(lp7428
S'9835061'
p7429
ag3
ag4
ag5
aa(lp7430
S'9328093'
p7431
ag3
ag4
ag5
aa(lp7432
S'9754338'
p7433
ag10
ag4
ag11
aa(lp7434
S'9396405'
p7435
ag3
ag4
ag5
aa(lp7436
S'9041946'
p7437
ag3
ag4
ag5
aa(lp7438
S'9450119'
p7439
ag3
ag4
ag5
aa(lp7440
S'9942030'
p7441
ag10
ag4
ag11
aa(lp7442
S'9356305'
p7443
ag10
ag4
ag11
aa(lp7444
S'9211261'
p7445
ag10
ag4
ag11
aa(lp7446
S'9666175'
p7447
ag10
ag4
ag11
aa(lp7448
S'9240045'
p7449
ag10
ag4
ag11
aa(lp7450
S'9298541'
p7451
ag10
ag10
ag11
aa(lp7452
S'9889793'
p7453
ag3
ag4
ag5
aa(lp7454
S'9820245'
p7455
ag10
ag4
ag11
aa(lp7456
S'9617748'
p7457
ag3
ag4
ag5
aa(lp7458
S'9172581'
p7459
ag3
ag4
ag5
aa(lp7460
S'9784803'
p7461
ag10
ag4
ag11
aa(lp7462
S'9750072'
p7463
ag10
ag4
ag11
aa(lp7464
S'9743560'
p7465
ag3
ag10
ag5
aa(lp7466
S'9664932'
p7467
ag10
ag4
ag11
aa(lp7468
S'9388265'
p7469
ag10
ag4
ag11
aa(lp7470
S'9990698'
p7471
ag10
ag4
ag11
aa(lp7472
S'9653221'
p7473
ag3
ag10
ag5
aa(lp7474
S'9933085'
p7475
ag10
ag4
ag11
aa(lp7476
S'9746357'
p7477
ag3
ag4
ag5
aa(lp7478
S'9626197'
p7479
ag10
ag4
ag11
aa(lp7480
S'9868006'
p7481
ag10
ag4
ag11
aa(lp7482
S'9724768'
p7483
ag10
ag4
ag11
aa(lp7484
S'9699340'
p7485
ag3
ag4
ag5
aa(lp7486
S'9996284'
p7487
ag10
ag4
ag11
aa(lp7488
S'9862541'
p7489
ag3
ag4
ag5
aa(lp7490
S'9453364'
p7491
ag3
ag10
ag5
aa(lp7492
S'9407340'
p7493
ag10
ag4
ag11
aa(lp7494
S'9717730'
p7495
ag10
ag4
ag11
aa(lp7496
S'9510900'
p7497
ag10
ag4
ag11
aa(lp7498
S'9676775'
p7499
ag3
ag4
ag5
aa(lp7500
S'9817136'
p7501
ag10
ag4
ag11
aa(lp7502
S'9910268'
p7503
ag3
ag4
ag5
aa(lp7504
S'9735251'
p7505
ag3
ag4
ag5
aa(lp7506
S'9189553'
p7507
ag10
ag10
ag11
aa(lp7508
S'9224866'
p7509
ag3
ag4
ag5
aa(lp7510
S'9308348'
p7511
ag10
ag4
ag11
aa(lp7512
S'9336356'
p7513
ag10
ag4
ag11
aa(lp7514
S'9997610'
p7515
ag3
ag4
ag5
aa(lp7516
S'9480338'
p7517
ag3
ag10
ag5
aa(lp7518
S'9821149'
p7519
ag10
ag4
ag11
aa(lp7520
S'9693364'
p7521
ag10
ag4
ag11
aa(lp7522
S'9417063'
p7523
ag3
ag10
ag5
aa(lp7524
S'9034677'
p7525
ag3
ag4
ag5
aa(lp7526
S'9555124'
p7527
ag3
ag4
ag5
aa(lp7528
S'9411428'
p7529
ag3
ag4
ag5
aa(lp7530
S'9861824'
p7531
ag10
ag4
ag11
aa(lp7532
S'9270239'
p7533
ag10
ag4
ag11
aa(lp7534
S'9546159'
p7535
ag3
ag4
ag5
aa(lp7536
S'9480211'
p7537
ag3
ag4
ag5
aa(lp7538
S'9177571'
p7539
ag10
ag4
ag11
aa(lp7540
S'9200078'
p7541
ag3
ag4
ag5
aa(lp7542
S'9493930'
p7543
ag10
ag4
ag11
aa(lp7544
S'9617005'
p7545
ag10
ag4
ag11
aa(lp7546
S'9371094'
p7547
ag10
ag4
ag11
aa(lp7548
S'9755372'
p7549
ag3
ag4
ag5
aa(lp7550
S'9556150'
p7551
ag3
ag4
ag5
aa(lp7552
S'9805687'
p7553
ag10
ag4
ag11
aa(lp7554
S'9686834'
p7555
ag3
ag4
ag5
aa(lp7556
S'9805234'
p7557
ag10
ag4
ag11
aa(lp7558
S'9653659'
p7559
ag10
ag4
ag11
aa(lp7560
S'9416308'
p7561
ag3
ag4
ag5
aa(lp7562
S'9416851'
p7563
ag3
ag10
ag5
aa(lp7564
S'9039744'
p7565
ag3
ag4
ag5
aa(lp7566
S'9590267'
p7567
ag3
ag4
ag5
aa(lp7568
S'9040944'
p7569
ag3
ag10
ag5
aa(lp7570
S'9101951'
p7571
ag3
ag4
ag5
aa(lp7572
S'9139557'
p7573
ag3
ag4
ag5
aa(lp7574
S'9340357'
p7575
ag10
ag4
ag11
aa(lp7576
S'9676775'
p7577
ag10
ag4
ag11
aa(lp7578
S'9691359'
p7579
ag3
ag4
ag5
aa(lp7580
S'9392060'
p7581
ag10
ag4
ag11
aa(lp7582
S'9883539'
p7583
ag3
ag10
ag5
aa(lp7584
S'9478377'
p7585
ag10
ag4
ag11
aa(lp7586
S'9003380'
p7587
ag10
ag10
ag11
aa(lp7588
S'9557111'
p7589
ag10
ag4
ag11
aa(lp7590
S'9911082'
p7591
ag10
ag4
ag11
aa(lp7592
S'9911788'
p7593
ag10
ag4
ag11
aa(lp7594
S'9952273'
p7595
ag10
ag4
ag11
aa(lp7596
S'9457863'
p7597
ag10
ag4
ag11
aa(lp7598
S'9750582'
p7599
ag3
ag4
ag5
aa(lp7600
S'9322437'
p7601
ag3
ag4
ag5
aa(lp7602
S'9873057'
p7603
ag10
ag4
ag11
aa(lp7604
S'9036316'
p7605
ag3
ag4
ag5
aa(lp7606
S'9597688'
p7607
ag3
ag4
ag5
aa(lp7608
S'9160801'
p7609
ag3
ag10
ag5
aa(lp7610
S'9028786'
p7611
ag3
ag4
ag5
aa(lp7612
S'9122517'
p7613
ag3
ag4
ag5
aa(lp7614
S'9062942'
p7615
ag3
ag4
ag5
aa(lp7616
S'9120519'
p7617
ag10
ag4
ag11
aa(lp7618
S'9569020'
p7619
ag3
ag4
ag5
aa(lp7620
S'9626171'
p7621
ag3
ag4
ag5
aa(lp7622
S'9519410'
p7623
ag3
ag4
ag5
aa(lp7624
S'9055429'
p7625
ag10
ag4
ag11
aa(lp7626
S'9112976'
p7627
ag3
ag4
ag5
aa(lp7628
S'9048308'
p7629
ag3
ag4
ag5
aa(lp7630
S'9448315'
p7631
ag10
ag4
ag11
aa(lp7632
S'9731254'
p7633
ag3
ag4
ag5
aa(lp7634
S'9086204'
p7635
ag3
ag4
ag5
aa(lp7636
S'9816138'
p7637
ag10
ag10
ag11
aa(lp7638
S'9473561'
p7639
ag10
ag10
ag11
aa(lp7640
S'9072956'
p7641
ag3
ag4
ag5
aa(lp7642
S'9797627'
p7643
ag10
ag4
ag11
aa(lp7644
S'9399980'
p7645
ag10
ag4
ag11
aa(lp7646
S'9649418'
p7647
ag10
ag4
ag11
aa(lp7648
S'9766889'
p7649
ag3
ag10
ag5
aa(lp7650
S'9316069'
p7651
ag3
ag4
ag5
aa(lp7652
S'9338346'
p7653
ag3
ag4
ag5
aa(lp7654
S'9596248'
p7655
ag10
ag4
ag11
aa(lp7656
S'9083378'
p7657
ag3
ag4
ag5
aa(lp7658
S'9120358'
p7659
ag3
ag4
ag5
aa(lp7660
S'9725172'
p7661
ag3
ag4
ag5
aa(lp7662
S'9328584'
p7663
ag10
ag4
ag11
aa(lp7664
S'9487864'
p7665
ag10
ag10
ag11
aa(lp7666
S'9694101'
p7667
ag3
ag4
ag5
aa(lp7668
S'9949321'
p7669
ag3
ag4
ag5
aa(lp7670
S'9061805'
p7671
ag10
ag4
ag11
aa(lp7672
S'9264649'
p7673
ag10
ag4
ag11
aa(lp7674
S'9398079'
p7675
ag10
ag4
ag11
aa(lp7676
S'9776018'
p7677
ag3
ag4
ag5
aa(lp7678
S'9407018'
p7679
ag3
ag4
ag5
aa(lp7680
S'9104043'
p7681
ag10
ag4
ag11
aa(lp7682
S'9043461'
p7683
ag10
ag4
ag11
aa(lp7684
S'9929175'
p7685
ag10
ag4
ag11
aa(lp7686
S'9613159'
p7687
ag3
ag4
ag5
aa(lp7688
S'9617689'
p7689
ag3
ag10
ag5
aa(lp7690
S'9318127'
p7691
ag3
ag4
ag5
aa(lp7692
S'9319366'
p7693
ag10
ag4
ag11
aa(lp7694
S'9211800'
p7695
ag3
ag4
ag5
aa(lp7696
S'9241780'
p7697
ag3
ag4
ag5
aa(lp7698
S'9133340'
p7699
ag10
ag4
ag11
aa(lp7700
S'9561576'
p7701
ag3
ag10
ag5
aa(lp7702
S'9455238'
p7703
ag10
ag4
ag11
aa(lp7704
S'9905766'
p7705
ag10
ag4
ag11
aa(lp7706
S'9614618'
p7707
ag3
ag4
ag5
aa(lp7708
S'9406033'
p7709
ag3
ag10
ag5
aa(lp7710
S'9645577'
p7711
ag10
ag4
ag11
aa(lp7712
S'9152688'
p7713
ag3
ag4
ag5
aa(lp7714
S'9914317'
p7715
ag10
ag4
ag11
aa(lp7716
S'9643521'
p7717
ag3
ag4
ag5
aa(lp7718
S'9003658'
p7719
ag10
ag4
ag11
aa(lp7720
S'9127495'
p7721
ag3
ag10
ag5
aa(lp7722
S'9647703'
p7723
ag10
ag10
ag11
aa(lp7724
S'9244535'
p7725
ag10
ag4
ag11
aa(lp7726
S'9908665'
p7727
ag3
ag4
ag5
aa(lp7728
S'9308482'
p7729
ag3
ag4
ag5
aa(lp7730
S'9129477'
p7731
ag10
ag4
ag11
aa(lp7732
S'9360132'
p7733
ag10
ag4
ag11
aa(lp7734
S'9502364'
p7735
ag10
ag4
ag11
aa(lp7736
S'9931342'
p7737
ag3
ag4
ag5
aa(lp7738
S'9800098'
p7739
ag10
ag4
ag11
aa(lp7740
S'9399129'
p7741
ag10
ag4
ag11
aa(lp7742
S'9905766'
p7743
ag3
ag4
ag5
aa(lp7744
S'9946473'
p7745
ag10
ag4
ag11
aa(lp7746
S'9606711'
p7747
ag3
ag4
ag5
aa(lp7748
S'9386991'
p7749
ag10
ag10
ag11
aa(lp7750
S'9623707'
p7751
ag10
ag10
ag11
aa(lp7752
S'9184949'
p7753
ag10
ag4
ag11
aa(lp7754
S'9100699'
p7755
ag3
ag4
ag5
aa(lp7756
S'9665672'
p7757
ag10
ag4
ag11
aa(lp7758
S'9152525'
p7759
ag3
ag4
ag5
aa(lp7760
S'9256567'
p7761
ag3
ag4
ag5
aa(lp7762
S'9294761'
p7763
ag10
ag10
ag11
aa(lp7764
S'9629158'
p7765
ag3
ag4
ag5
aa(lp7766
S'9872789'
p7767
ag3
ag4
ag5
aa(lp7768
S'9850845'
p7769
ag10
ag10
ag11
aa(lp7770
S'9111399'
p7771
ag10
ag4
ag11
aa(lp7772
S'9008820'
p7773
ag3
ag4
ag5
aa(lp7774
S'9458391'
p7775
ag10
ag4
ag11
aa(lp7776
S'9966343'
p7777
ag10
ag4
ag11
aa(lp7778
S'9355016'
p7779
ag10
ag10
ag11
aa(lp7780
S'9329346'
p7781
ag3
ag4
ag5
aa(lp7782
S'9214547'
p7783
ag10
ag4
ag11
aa(lp7784
S'9811971'
p7785
ag3
ag4
ag5
aa(lp7786
S'9019287'
p7787
ag10
ag4
ag11
aa(lp7788
S'9449511'
p7789
ag10
ag4
ag11
aa(lp7790
S'9363408'
p7791
ag3
ag4
ag5
aa(lp7792
S'9226874'
p7793
ag3
ag4
ag5
aa(lp7794
S'9090860'
p7795
ag3
ag4
ag5
aa(lp7796
S'9230363'
p7797
ag3
ag4
ag5
aa(lp7798
S'9440417'
p7799
ag10
ag4
ag11
aa(lp7800
S'9853065'
p7801
ag10
ag4
ag11
aa(lp7802
S'9333793'
p7803
ag3
ag4
ag5
aa(lp7804
S'9854749'
p7805
ag3
ag4
ag5
aa(lp7806
S'9580474'
p7807
ag10
ag10
ag11
aa(lp7808
S'9562491'
p7809
ag10
ag10
ag11
aa(lp7810
S'9154214'
p7811
ag3
ag4
ag5
aa(lp7812
S'9185786'
p7813
ag3
ag4
ag5
aa(lp7814
S'9142466'
p7815
ag10
ag4
ag11
aa(lp7816
S'9193363'
p7817
ag10
ag4
ag11
aa(lp7818
S'9279874'
p7819
ag10
ag4
ag11
aa(lp7820
S'9990355'
p7821
ag10
ag4
ag11
aa(lp7822
S'9564245'
p7823
ag10
ag4
ag11
aa(lp7824
S'9882326'
p7825
ag10
ag4
ag11
aa(lp7826
S'9614227'
p7827
ag3
ag4
ag5
aa(lp7828
S'9903777'
p7829
ag10
ag4
ag11
aa(lp7830
S'9578728'
p7831
ag10
ag4
ag11
aa(lp7832
S'9986838'
p7833
ag3
ag4
ag5
aa(lp7834
S'9951122'
p7835
ag3
ag4
ag5
aa(lp7836
S'9223040'
p7837
ag10
ag4
ag11
aa(lp7838
S'9146801'
p7839
ag10
ag4
ag11
aa(lp7840
S'9805931'
p7841
ag3
ag10
ag5
aa(lp7842
S'9645116'
p7843
ag3
ag4
ag5
aa(lp7844
S'9765203'
p7845
ag3
ag4
ag5
aa(lp7846
S'9019907'
p7847
ag10
ag4
ag11
aa(lp7848
S'9466142'
p7849
ag3
ag4
ag5
aa(lp7850
S'9836547'
p7851
ag3
ag4
ag5
aa(lp7852
S'9887094'
p7853
ag3
ag10
ag5
aa(lp7854
S'9534424'
p7855
ag10
ag4
ag11
aa(lp7856
S'9366809'
p7857
ag10
ag4
ag11
aa(lp7858
S'9644707'
p7859
ag3
ag4
ag5
aa(lp7860
S'9771624'
p7861
ag3
ag4
ag5
aa(lp7862
S'9693599'
p7863
ag10
ag4
ag11
aa(lp7864
S'9653659'
p7865
ag3
ag10
ag5
aa(lp7866
S'9367389'
p7867
ag3
ag4
ag5
aa(lp7868
S'9971275'
p7869
ag10
ag4
ag11
aa(lp7870
S'9597990'
p7871
ag3
ag4
ag5
aa(lp7872
S'9989700'
p7873
ag3
ag4
ag5
aa(lp7874
S'9458093'
p7875
ag10
ag4
ag11
aa(lp7876
S'9220406'
p7877
ag3
ag4
ag5
aa(lp7878
S'9746075'
p7879
ag3
ag10
ag5
aa(lp7880
S'9631930'
p7881
ag10
ag4
ag11
aa(lp7882
S'9357990'
p7883
ag3
ag4
ag5
aa(lp7884
S'9867315'
p7885
ag10
ag10
ag11
aa(lp7886
S'9860568'
p7887
ag10
ag4
ag11
aa(lp7888
S'9191533'
p7889
ag10
ag10
ag11
aa(lp7890
S'9871097'
p7891
ag10
ag4
ag11
aa(lp7892
S'9653214'
p7893
ag10
ag4
ag11
aa(lp7894
S'9583127'
p7895
ag10
ag4
ag11
aa(lp7896
S'9684605'
p7897
ag3
ag4
ag5
aa(lp7898
S'9575273'
p7899
ag3
ag4
ag5
aa(lp7900
S'9007904'
p7901
ag3
ag4
ag5
aa(lp7902
S'9652396'
p7903
ag3
ag4
ag5
aa(lp7904
S'9452269'
p7905
ag10
ag4
ag11
aa(lp7906
S'9590002'
p7907
ag3
ag4
ag5
aa(lp7908
S'9245917'
p7909
ag10
ag4
ag11
aa(lp7910
S'9878765'
p7911
ag3
ag4
ag5
aa(lp7912
S'9507296'
p7913
ag10
ag4
ag11
aa(lp7914
S'9140040'
p7915
ag3
ag4
ag5
aa(lp7916
S'9582261'
p7917
ag10
ag4
ag11
aa(lp7918
S'9432327'
p7919
ag10
ag4
ag11
aa(lp7920
S'9571939'
p7921
ag3
ag4
ag5
aa(lp7922
S'9921586'
p7923
ag3
ag4
ag5
aa(lp7924
S'9271023'
p7925
ag3
ag4
ag5
aa(lp7926
S'9096851'
p7927
ag3
ag4
ag5
aa(lp7928
S'9841058'
p7929
ag10
ag4
ag11
aa(lp7930
S'9872241'
p7931
ag3
ag4
ag5
aa(lp7932
S'9055429'
p7933
ag3
ag4
ag5
aa(lp7934
S'9053872'
p7935
ag3
ag4
ag5
aa(lp7936
S'9469136'
p7937
ag3
ag4
ag5
aa(lp7938
S'9547154'
p7939
ag10
ag4
ag11
aa(lp7940
S'9875724'
p7941
ag10
ag10
ag11
aa(lp7942
S'9465298'
p7943
ag10
ag10
ag11
aa(lp7944
S'9911082'
p7945
ag3
ag4
ag5
aa(lp7946
S'9676996'
p7947
ag3
ag4
ag5
aa(lp7948
S'9303781'
p7949
ag3
ag4
ag5
aa(lp7950
S'9745853'
p7951
ag3
ag4
ag5
aa(lp7952
S'9621198'
p7953
ag3
ag4
ag5
aa(lp7954
S'9621198'
p7955
ag10
ag4
ag11
aa(lp7956
S'9144547'
p7957
ag10
ag4
ag11
aa(lp7958
S'9397088'
p7959
ag10
ag4
ag11
aa(lp7960
S'9137248'
p7961
ag3
ag4
ag5
aa(lp7962
S'9411555'
p7963
ag10
ag4
ag11
aa(lp7964
S'9356765'
p7965
ag10
ag4
ag11
aa(lp7966
S'9861560'
p7967
ag3
ag4
ag5
aa(lp7968
S'9255884'
p7969
ag3
ag10
ag5
aa(lp7970
S'9821241'
p7971
ag10
ag4
ag11
aa(lp7972
S'9063934'
p7973
ag10
ag4
ag11
aa(lp7974
S'9742313'
p7975
ag3
ag4
ag5
aa(lp7976
S'9243046'
p7977
ag10
ag4
ag11
aa(lp7978
S'9807724'
p7979
ag10
ag4
ag11
aa(lp7980
S'9508414'
p7981
ag10
ag4
ag11
aa(lp7982
S'9440883'
p7983
ag10
ag4
ag11
aa(lp7984
S'9492863'
p7985
ag10
ag4
ag11
aa(lp7986
S'9771214'
p7987
ag3
ag10
ag5
aa(lp7988
S'9789767'
p7989
ag3
ag4
ag5
aa(lp7990
S'9560051'
p7991
ag3
ag10
ag5
aa(lp7992
S'9142030'
p7993
ag3
ag4
ag5
aa(lp7994
S'9532382'
p7995
ag3
ag4
ag5
aa(lp7996
S'9058469'
p7997
ag3
ag4
ag5
aa(lp7998
S'9253225'
p7999
ag10
ag4
ag11
aa(lp8000
S'9753871'
p8001
ag3
ag4
ag5
aa(lp8002
S'9659155'
p8003
ag10
ag10
ag11
aa(lp8004
S'9284909'
p8005
ag10
ag4
ag11
aa(lp8006
S'9928319'
p8007
ag10
ag10
ag11
aa(lp8008
S'9341449'
p8009
ag3
ag4
ag5
aa(lp8010
S'9702852'
p8011
ag10
ag4
ag11
aa(lp8012
S'9298954'
p8013
ag10
ag4
ag11
aa(lp8014
S'9473335'
p8015
ag10
ag10
ag11
aa(lp8016
S'9303093'
p8017
ag10
ag4
ag11
aa(lp8018
S'9434010'
p8019
ag10
ag4
ag11
aa(lp8020
S'9555603'
p8021
ag3
ag4
ag5
aa(lp8022
S'9772736'
p8023
ag3
ag4
ag5
aa(lp8024
S'9142466'
p8025
ag3
ag4
ag5
aa(lp8026
S'9759119'
p8027
ag10
ag4
ag11
aa(lp8028
S'9533049'
p8029
ag3
ag4
ag5
aa(lp8030
S'9886047'
p8031
ag10
ag4
ag11
aa(lp8032
S'9621716'
p8033
ag3
ag10
ag5
aa(lp8034
S'9941446'
p8035
ag3
ag4
ag5
aa(lp8036
S'9503137'
p8037
ag3
ag4
ag5
aa(lp8038
S'9516409'
p8039
ag10
ag4
ag11
aa(lp8040
S'9841364'
p8041
ag3
ag4
ag5
aa(lp8042
S'9109950'
p8043
ag10
ag4
ag11
aa(lp8044
S'9682706'
p8045
ag3
ag4
ag5
aa(lp8046
S'9137393'
p8047
ag3
ag4
ag5
aa(lp8048
S'9119805'
p8049
ag3
ag4
ag5
aa(lp8050
S'9992843'
p8051
ag3
ag4
ag5
aa(lp8052
S'9540125'
p8053
ag10
ag4
ag11
aa(lp8054
S'9020856'
p8055
ag10
ag4
ag11
aa(lp8056
S'9229496'
p8057
ag10
ag4
ag11
aa(lp8058
S'9237029'
p8059
ag10
ag4
ag11
aa(lp8060
S'9365655'
p8061
ag10
ag4
ag11
aa(lp8062
S'9171457'
p8063
ag10
ag4
ag11
aa(lp8064
S'9088841'
p8065
ag10
ag4
ag11
aa(lp8066
S'9642894'
p8067
ag3
ag4
ag5
aa(lp8068
S'9825783'
p8069
ag3
ag4
ag5
aa(lp8070
S'9192363'
p8071
ag10
ag4
ag11
aa(lp8072
S'9759119'
p8073
ag3
ag10
ag5
aa(lp8074
S'9162498'
p8075
ag10
ag4
ag11
aa(lp8076
S'9376430'
p8077
ag3
ag10
ag5
aa(lp8078
S'9765966'
p8079
ag3
ag4
ag5
aa.