(lp0
(lp1
S'9023935'
p2
aS'2'
p3
aS'0'
p4
aS'L'
p5
aa(lp6
S'9173950'
p7
ag3
aS'1'
p8
ag5
aa(lp9
S'9993442'
p10
ag3
ag4
ag5
aa(lp11
S'9815657'
p12
ag3
ag4
ag5
aa(lp13
S'9547154'
p14
ag8
ag4
aS'R'
p15
aa(lp16
S'9426003'
p17
ag3
ag4
ag5
aa(lp18
S'9455238'
p19
ag8
ag4
ag15
aa(lp20
S'9312419'
p21
ag3
ag4
ag5
aa(lp22
S'9968036'
p23
ag8
ag4
ag15
aa(lp24
S'9615638'
p25
ag8
ag8
ag15
aa(lp26
S'9474901'
p27
ag3
ag8
ag5
aa(lp28
S'9600538'
p29
ag3
ag8
ag5
aa(lp30
S'9816968'
p31
ag3
ag4
ag5
aa(lp32
S'9239552'
p33
ag3
ag8
ag5
aa(lp34
S'9923601'
p35
ag3
ag8
ag5
aa(lp36
S'9446305'
p37
ag8
ag4
ag15
aa(lp38
S'9269510'
p39
ag3
ag8
ag5
aa(lp40
S'9043446'
p41
ag8
ag8
ag15
aa(lp42
S'9055038'
p43
ag3
ag8
ag5
aa(lp44
S'9035647'
p45
ag8
ag8
ag15
aa(lp46
S'9297239'
p47
ag3
ag4
ag5
aa(lp48
S'9643032'
p49
ag3
ag4
ag5
aa(lp50
S'9564280'
p51
ag3
ag8
ag5
aa(lp52
S'9480215'
p53
ag3
ag8
ag5
aa(lp54
S'9166930'
p55
ag3
ag4
ag5
aa(lp56
S'9568696'
p57
ag8
ag4
ag15
aa(lp58
S'9444295'
p59
ag8
ag4
ag15
aa(lp60
S'9383254'
p61
ag3
ag8
ag5
aa(lp62
S'9171714'
p63
ag3
ag4
ag5
aa(lp64
S'9016179'
p65
ag8
ag4
ag15
aa(lp66
S'9821480'
p67
ag3
ag4
ag5
aa(lp68
S'9155943'
p69
ag8
ag4
ag15
aa(lp70
S'9142896'
p71
ag3
ag4
ag5
aa(lp72
S'9685830'
p73
ag8
ag8
ag15
aa(lp74
S'9716478'
p75
ag3
ag8
ag5
aa(lp76
S'9907909'
p77
ag3
ag8
ag5
aa(lp78
S'9917505'
p79
ag8
ag8
ag15
aa(lp80
S'9329159'
p81
ag8
ag8
ag15
aa(lp82
S'9152442'
p83
ag8
ag8
ag15
aa(lp84
S'9666974'
p85
ag3
ag4
ag5
aa(lp86
S'9187595'
p87
ag3
ag8
ag5
aa(lp88
S'9211261'
p89
ag8
ag4
ag15
aa(lp90
S'9615754'
p91
ag3
ag8
ag5
aa(lp92
S'9996086'
p93
ag3
ag4
ag5
aa(lp94
S'9488861'
p95
ag3
ag4
ag5
aa(lp96
S'9268233'
p97
ag8
ag8
ag15
aa(lp98
S'9819149'
p99
ag3
ag4
ag5
aa(lp100
S'9240045'
p101
ag8
ag4
ag15
aa(lp102
S'9319367'
p103
ag3
ag8
ag5
aa(lp104
S'9387992'
p105
ag8
ag4
ag15
aa(lp106
S'9260036'
p107
ag3
ag8
ag5
aa(lp108
S'9641381'
p109
ag3
ag4
ag5
aa(lp110
S'9703327'
p111
ag3
ag4
ag5
aa(lp112
S'9295533'
p113
ag3
ag4
ag5
aa(lp114
S'9928082'
p115
ag8
ag8
ag15
aa(lp116
S'9451217'
p117
ag3
ag4
ag5
aa(lp118
S'9432148'
p119
ag3
ag8
ag5
aa(lp120
S'9599018'
p121
ag3
ag8
ag5
aa(lp122
S'9057479'
p123
ag8
ag8
ag15
aa(lp124
S'9748304'
p125
ag8
ag8
ag15
aa(lp126
S'9003380'
p127
ag8
ag8
ag15
aa(lp128
S'9907012'
p129
ag3
ag4
ag5
aa(lp130
S'9253423'
p131
ag3
ag8
ag5
aa(lp132
S'9431322'
p133
ag3
ag4
ag5
aa(lp134
S'9411979'
p135
ag3
ag8
ag5
aa(lp136
S'9112495'
p137
ag3
ag8
ag5
aa(lp138
S'9150876'
p139
ag8
ag8
ag15
aa(lp140
S'9275309'
p141
ag8
ag8
ag15
aa(lp142
S'9662427'
p143
ag3
ag8
ag5
aa(lp144
S'9928319'
p145
ag8
ag8
ag15
aa(lp146
S'9522615'
p147
ag8
ag8
ag15
aa(lp148
S'9802615'
p149
ag8
ag8
ag15
aa(lp150
S'9430234'
p151
ag3
ag4
ag5
aa(lp152
S'9225871'
p153
ag3
ag4
ag5
aa(lp154
S'9717450'
p155
ag3
ag4
ag5
aa(lp156
S'9797352'
p157
ag8
ag8
ag15
aa(lp158
S'9368839'
p159
ag3
ag4
ag5
aa(lp160
S'9753894'
p161
ag8
ag8
ag15
aa(lp162
S'9953302'
p163
ag8
ag8
ag15
aa(lp164
S'9376430'
p165
ag3
ag8
ag5
aa(lp166
S'9553355'
p167
ag3
ag4
ag5
aa(lp168
S'9328154'
p169
ag3
ag8
ag5
aa(lp170
S'9113414'
p171
ag3
ag8
ag5
aa(lp172
S'9029415'
p173
ag8
ag4
ag15
aa(lp174
S'9616228'
p175
ag8
ag4
ag15
aa(lp176
S'9871608'
p177
ag8
ag4
ag15
aa(lp178
S'9861699'
p179
ag8
ag8
ag15
aa(lp180
S'9420978'
p181
ag3
ag4
ag5
aa(lp182
S'9889028'
p183
ag3
ag4
ag5
aa(lp184
S'9544698'
p185
ag8
ag8
ag15
aa(lp186
S'9469155'
p187
ag3
ag4
ag5
aa(lp188
S'9164965'
p189
ag3
ag4
ag5
aa(lp190
S'9568180'
p191
ag3
ag8
ag5
aa(lp192
S'9976207'
p193
ag3
ag8
ag5
aa(lp194
S'9580474'
p195
ag3
ag8
ag5
aa(lp196
S'9981798'
p197
ag8
ag8
ag15
aa(lp198
S'9709444'
p199
ag8
ag4
ag15
aa(lp200
S'9768869'
p201
ag3
ag4
ag5
aa(lp202
S'9920168'
p203
ag8
ag8
ag15
aa(lp204
S'9947321'
p205
ag3
ag8
ag5
aa(lp206
S'9486466'
p207
ag8
ag8
ag15
aa(lp208
S'9789095'
p209
ag3
ag8
ag5
aa(lp210
S'9876792'
p211
ag8
ag8
ag15
aa(lp212
S'9808600'
p213
ag3
ag8
ag5
aa(lp214
S'9710976'
p215
ag8
ag4
ag15
aa(lp216
S'9585474'
p217
ag8
ag4
ag15
aa(lp218
S'9119950'
p219
ag3
ag8
ag5
aa(lp220
S'9847829'
p221
ag8
ag8
ag15
aa(lp222
S'9585474'
p223
ag3
ag4
ag5
aa(lp224
S'9543679'
p225
ag3
ag4
ag5
aa(lp226
S'9961728'
p227
ag3
ag8
ag5
aa(lp228
S'9044788'
p229
ag3
ag8
ag5
aa(lp230
S'9737302'
p231
ag8
ag4
ag15
aa(lp232
S'9143628'
p233
ag8
ag8
ag15
aa(lp234
S'9541651'
p235
ag3
ag4
ag5
aa(lp236
S'9712471'
p237
ag3
ag8
ag5
aa(lp238
S'9432585'
p239
ag3
ag4
ag5
aa(lp240
S'9817661'
p241
ag8
ag8
ag15
aa(lp242
S'9729094'
p243
ag8
ag8
ag15
aa(lp244
S'9468292'
p245
ag3
ag8
ag5
aa(lp246
S'9191054'
p247
ag3
ag4
ag5
aa(lp248
S'9549906'
p249
ag8
ag8
ag15
aa(lp250
S'9333793'
p251
ag8
ag4
ag15
aa(lp252
S'9961951'
p253
ag8
ag4
ag15
aa(lp254
S'9232259'
p255
ag8
ag8
ag15
aa(lp256
S'9393127'
p257
ag3
ag8
ag5
aa(lp258
S'9025257'
p259
ag8
ag8
ag15
aa(lp260
S'9824005'
p261
ag8
ag8
ag15
aa(lp262
S'9544188'
p263
ag3
ag8
ag5
aa(lp264
S'9893600'
p265
ag8
ag4
ag15
aa(lp266
S'9828518'
p267
ag8
ag8
ag15
aa(lp268
S'9608703'
p269
ag8
ag4
ag15
aa(lp270
S'9329345'
p271
ag3
ag8
ag5
aa(lp272
S'9953518'
p273
ag8
ag8
ag15
aa(lp274
S'9398272'
p275
ag3
ag4
ag5
aa(lp276
S'9598675'
p277
ag8
ag4
ag15
aa(lp278
S'9907402'
p279
ag3
ag8
ag5
aa(lp280
S'9200051'
p281
ag8
ag8
ag15
aa(lp282
S'9287295'
p283
ag8
ag4
ag15
aa(lp284
S'9850845'
p285
ag8
ag8
ag15
aa(lp286
S'9375122'
p287
ag3
ag8
ag5
aa(lp288
S'9771687'
p289
ag8
ag4
ag15
aa(lp290
S'9732727'
p291
ag3
ag4
ag5
aa(lp292
S'9055038'
p293
ag8
ag8
ag15
aa(lp294
S'9465413'
p295
ag8
ag4
ag15
aa(lp296
S'9274245'
p297
ag3
ag4
ag5
aa(lp298
S'9224983'
p299
ag3
ag8
ag5
aa(lp300
S'9508858'
p301
ag3
ag4
ag5
aa(lp302
S'9069786'
p303
ag3
ag4
ag5
aa(lp304
S'9487864'
p305
ag8
ag8
ag15
aa(lp306
S'9669143'
p307
ag8
ag4
ag15
aa(lp308
S'9940058'
p309
ag8
ag4
ag15
aa(lp310
S'9935448'
p311
ag8
ag4
ag15
aa(lp312
S'9622185'
p313
ag3
ag4
ag5
aa(lp314
S'9006723'
p315
ag8
ag8
ag15
aa(lp316
S'9884303'
p317
ag8
ag8
ag15
aa(lp318
S'9811200'
p319
ag3
ag4
ag5
aa(lp320
S'9351436'
p321
ag3
ag4
ag5
aa(lp322
S'9219596'
p323
ag8
ag8
ag15
aa(lp324
S'9902235'
p325
ag3
ag4
ag5
aa(lp326
S'9444132'
p327
ag8
ag4
ag15
aa(lp328
S'9745578'
p329
ag8
ag8
ag15
aa(lp330
S'9088617'
p331
ag3
ag4
ag5
aa(lp332
S'9385984'
p333
ag8
ag8
ag15
aa(lp334
S'9970801'
p335
ag3
ag4
ag5
aa(lp336
S'9018291'
p337
ag8
ag4
ag15
aa(lp338
S'9292027'
p339
ag3
ag4
ag5
aa(lp340
S'9870268'
p341
ag3
ag4
ag5
aa(lp342
S'9517311'
p343
ag3
ag4
ag5
aa(lp344
S'9127495'
p345
ag3
ag8
ag5
aa(lp346
S'9888561'
p347
ag3
ag4
ag5
aa(lp348
S'9854749'
p349
ag8
ag4
ag15
aa(lp350
S'9432389'
p351
ag3
ag8
ag5
aa(lp352
S'9486748'
p353
ag8
ag8
ag15
aa(lp354
S'9416851'
p355
ag3
ag8
ag5
aa(lp356
S'9457718'
p357
ag3
ag4
ag5
aa(lp358
S'9785684'
p359
ag8
ag8
ag15
aa(lp360
S'9386991'
p361
ag8
ag8
ag15
aa(lp362
S'9441140'
p363
ag8
ag4
ag15
aa(lp364
S'9939547'
p365
ag8
ag8
ag15
aa(lp366
S'9938453'
p367
ag3
ag8
ag5
aa(lp368
S'9558136'
p369
ag3
ag4
ag5
aa(lp370
S'9355257'
p371
ag8
ag8
ag15
aa(lp372
S'9565007'
p373
ag8
ag4
ag15
aa(lp374
S'9898669'
p375
ag3
ag8
ag5
aa(lp376
S'9487409'
p377
ag8
ag4
ag15
aa(lp378
S'9248932'
p379
ag8
ag4
ag15
aa(lp380
S'9110292'
p381
ag8
ag4
ag15
aa(lp382
S'9462266'
p383
ag3
ag8
ag5
aa(lp384
S'9725914'
p385
ag3
ag4
ag5
aa(lp386
S'9305113'
p387
ag3
ag4
ag5
aa(lp388
S'9292081'
p389
ag3
ag8
ag5
aa(lp390
S'9441140'
p391
ag3
ag4
ag5
aa(lp392
S'9590486'
p393
ag8
ag4
ag15
aa(lp394
S'9665973'
p395
ag3
ag8
ag5
aa(lp396
S'9057479'
p397
ag3
ag8
ag5
aa(lp398
S'9116057'
p399
ag3
ag8
ag5
aa(lp400
S'9787693'
p401
ag3
ag8
ag5
aa(lp402
S'9084391'
p403
ag8
ag4
ag15
aa(lp404
S'9793168'
p405
ag8
ag4
ag15
aa(lp406
S'9004669'
p407
ag8
ag4
ag15
aa(lp408
S'9617689'
p409
ag8
ag8
ag15
aa(lp410
S'9542855'
p411
ag3
ag8
ag5
aa(lp412
S'9412123'
p413
ag3
ag8
ag5
aa(lp414
S'9677770'
p415
ag3
ag8
ag5
aa(lp416
S'9653659'
p417
ag3
ag8
ag5
aa(lp418
S'9553907'
p419
ag3
ag4
ag5
aa(lp420
S'9759119'
p421
ag3
ag8
ag5
aa(lp422
S'9952817'
p423
ag3
ag4
ag5
aa(lp424
S'9046206'
p425
ag8
ag8
ag15
aa(lp426
S'9480338'
p427
ag3
ag8
ag5
aa(lp428
S'9283903'
p429
ag3
ag8
ag5
aa(lp430
S'9280249'
p431
ag8
ag8
ag15
aa(lp432
S'9461110'
p433
ag8
ag4
ag15
aa(lp434
S'9759382'
p435
ag3
ag4
ag5
aa(lp436
S'9805931'
p437
ag8
ag8
ag15
aa(lp438
S'9823421'
p439
ag8
ag4
ag15
aa(lp440
S'9764947'
p441
ag3
ag8
ag5
aa(lp442
S'9588488'
p443
ag3
ag4
ag5
aa(lp444
S'9531657'
p445
ag8
ag4
ag15
aa(lp446
S'9387094'
p447
ag3
ag8
ag5
aa(lp448
S'9049999'
p449
ag3
ag8
ag5
aa(lp450
S'9243046'
p451
ag3
ag4
ag5
aa(lp452
S'9703714'
p453
ag8
ag4
ag15
aa(lp454
S'9841838'
p455
ag3
ag8
ag5
aa(lp456
S'9272833'
p457
ag3
ag4
ag5
aa(lp458
S'9789297'
p459
ag3
ag8
ag5
aa(lp460
S'9088142'
p461
ag3
ag8
ag5
aa(lp462
S'9723032'
p463
ag8
ag8
ag15
aa(lp464
S'9211054'
p465
ag8
ag4
ag15
aa(lp466
S'9009957'
p467
ag3
ag8
ag5
aa(lp468
S'9768500'
p469
ag8
ag8
ag15
aa(lp470
S'9691663'
p471
ag3
ag8
ag5
aa(lp472
S'9894048'
p473
ag8
ag8
ag15
aa(lp474
S'9300796'
p475
ag3
ag8
ag5
aa(lp476
S'9633861'
p477
ag8
ag8
ag15
aa(lp478
S'9666440'
p479
ag8
ag4
ag15
aa(lp480
S'9266652'
p481
ag3
ag4
ag5
aa(lp482
S'9663428'
p483
ag8
ag4
ag15
aa(lp484
S'9847480'
p485
ag3
ag4
ag5
aa(lp486
S'9911265'
p487
ag8
ag8
ag15
aa(lp488
S'9988820'
p489
ag3
ag8
ag5
aa(lp490
S'9298541'
p491
ag8
ag8
ag15
aa(lp492
S'9337068'
p493
ag3
ag4
ag5
aa(lp494
S'9879242'
p495
ag8
ag4
ag15
aa(lp496
S'9967960'
p497
ag3
ag8
ag5
aa(lp498
S'9282182'
p499
ag3
ag8
ag5
aa(lp500
S'9361281'
p501
ag3
ag8
ag5
aa(lp502
S'9082137'
p503
ag8
ag8
ag15
aa(lp504
S'9702463'
p505
ag8
ag8
ag15
aa(lp506
S'9361302'
p507
ag8
ag4
ag15
aa(lp508
S'9157758'
p509
ag3
ag8
ag5
aa(lp510
S'9417075'
p511
ag3
ag4
ag5
aa(lp512
S'9905276'
p513
ag8
ag8
ag15
aa(lp514
S'9808818'
p515
ag8
ag8
ag15
aa(lp516
S'9223685'
p517
ag8
ag4
ag15
aa(lp518
S'9402055'
p519
ag3
ag8
ag5
aa(lp520
S'9442298'
p521
ag8
ag4
ag15
aa(lp522
S'9502727'
p523
ag3
ag4
ag5
aa(lp524
S'9442882'
p525
ag8
ag4
ag15
aa(lp526
S'9209896'
p527
ag3
ag8
ag5
aa(lp528
S'9666971'
p529
ag8
ag4
ag15
aa(lp530
S'9255884'
p531
ag3
ag8
ag5
aa(lp532
S'9866291'
p533
ag8
ag8
ag15
aa(lp534
S'9391967'
p535
ag3
ag8
ag5
aa(lp536
S'9708647'
p537
ag3
ag4
ag5
aa(lp538
S'9740781'
p539
ag3
ag4
ag5
aa(lp540
S'9589006'
p541
ag3
ag8
ag5
aa(lp542
S'9631713'
p543
ag3
ag8
ag5
aa(lp544
S'9888515'
p545
ag8
ag8
ag15
aa(lp546
S'9925376'
p547
ag8
ag4
ag15
aa(lp548
S'9040456'
p549
ag3
ag4
ag5
aa(lp550
S'9153255'
p551
ag8
ag8
ag15
aa(lp552
S'9272271'
p553
ag3
ag4
ag5
aa(lp554
S'9863737'
p555
ag3
ag4
ag5
aa(lp556
S'9008322'
p557
ag8
ag8
ag15
aa(lp558
S'9563176'
p559
ag8
ag8
ag15
aa(lp560
S'9717977'
p561
ag8
ag8
ag15
aa(lp562
S'9272393'
p563
ag3
ag4
ag5
aa(lp564
S'9613942'
p565
ag8
ag4
ag15
aa(lp566
S'9184949'
p567
ag3
ag8
ag5
aa(lp568
S'9867315'
p569
ag8
ag8
ag15
aa(lp570
S'9184588'
p571
ag3
ag4
ag5
aa(lp572
S'9879774'
p573
ag3
ag4
ag5
aa(lp574
S'9616919'
p575
ag8
ag8
ag15
aa(lp576
S'9650705'
p577
ag3
ag8
ag5
aa(lp578
S'9534106'
p579
ag3
ag8
ag5
aa(lp580
S'9281187'
p581
ag8
ag8
ag15
aa(lp582
S'9453364'
p583
ag3
ag8
ag5
aa(lp584
S'9599243'
p585
ag8
ag8
ag15
aa(lp586
S'9482887'
p587
ag8
ag4
ag15
aa(lp588
S'9829221'
p589
ag3
ag8
ag5
aa(lp590
S'9001897'
p591
ag3
ag8
ag5
aa(lp592
S'9389941'
p593
ag8
ag8
ag15
aa(lp594
S'9005413'
p595
ag3
ag4
ag5
aa(lp596
S'9473791'
p597
ag8
ag4
ag15
aa(lp598
S'9504056'
p599
ag8
ag8
ag15
aa(lp600
S'9417006'
p601
ag3
ag4
ag5
aa(lp602
S'9364232'
p603
ag3
ag8
ag5
aa(lp604
S'9914944'
p605
ag8
ag8
ag15
aa(lp606
S'9597148'
p607
ag3
ag8
ag5
aa(lp608
S'9014883'
p609
ag8
ag4
ag15
aa(lp610
S'9416102'
p611
ag3
ag8
ag5
aa(lp612
S'9357301'
p613
ag8
ag8
ag15
aa(lp614
S'9071781'
p615
ag3
ag8
ag5
aa(lp616
S'9791110'
p617
ag3
ag8
ag5
aa(lp618
S'9905024'
p619
ag8
ag8
ag15
aa(lp620
S'9973322'
p621
ag3
ag4
ag5
aa(lp622
S'9619662'
p623
ag3
ag8
ag5
aa(lp624
S'9830048'
p625
ag8
ag4
ag15
aa(lp626
S'9207016'
p627
ag8
ag4
ag15
aa(lp628
S'9577425'
p629
ag8
ag4
ag15
aa(lp630
S'9089627'
p631
ag3
ag8
ag5
aa(lp632
S'9135752'
p633
ag3
ag8
ag5
aa(lp634
S'9017419'
p635
ag3
ag4
ag5
aa(lp636
S'9330346'
p637
ag3
ag4
ag5
aa(lp638
S'9226589'
p639
ag3
ag8
ag5
aa(lp640
S'9369110'
p641
ag3
ag4
ag5
aa(lp642
S'9841364'
p643
ag8
ag4
ag15
aa(lp644
S'9273128'
p645
ag3
ag8
ag5
aa(lp646
S'9341240'
p647
ag3
ag8
ag5
aa(lp648
S'9810692'
p649
ag8
ag8
ag15
aa(lp650
S'9250129'
p651
ag3
ag8
ag5
aa(lp652
S'9041458'
p653
ag8
ag4
ag15
aa(lp654
S'9702463'
p655
ag3
ag8
ag5
aa(lp656
S'9745458'
p657
ag3
ag8
ag5
aa(lp658
S'9029791'
p659
ag8
ag8
ag15
aa(lp660
S'9404954'
p661
ag3
ag8
ag5
aa(lp662
S'9411979'
p663
ag8
ag4
ag15
aa(lp664
S'9305065'
p665
ag8
ag8
ag15
aa(lp666
S'9467124'
p667
ag3
ag4
ag5
aa(lp668
S'9723575'
p669
ag8
ag8
ag15
aa(lp670
S'9452247'
p671
ag8
ag4
ag15
aa(lp672
S'9056978'
p673
ag8
ag8
ag15
aa(lp674
S'9498839'
p675
ag3
ag4
ag5
aa(lp676
S'9835784'
p677
ag3
ag4
ag5
aa(lp678
S'9016403'
p679
ag3
ag4
ag5
aa(lp680
S'9633580'
p681
ag3
ag8
ag5
aa(lp682
S'9588277'
p683
ag3
ag4
ag5
aa(lp684
S'9557040'
p685
ag3
ag8
ag5
aa(lp686
S'9363408'
p687
ag8
ag4
ag15
aa(lp688
S'9927318'
p689
ag8
ag8
ag15
aa(lp690
S'9200057'
p691
ag8
ag8
ag15
aa(lp692
S'9900668'
p693
ag3
ag8
ag5
aa(lp694
S'9621729'
p695
ag8
ag8
ag15
aa(lp696
S'9321092'
p697
ag3
ag4
ag5
aa(lp698
S'9170503'
p699
ag8
ag4
ag15
aa(lp700
S'9040892'
p701
ag3
ag4
ag5
aa(lp702
S'9270239'
p703
ag3
ag4
ag5
aa(lp704
S'9311154'
p705
ag8
ag8
ag15
aa(lp706
S'9366809'
p707
ag8
ag4
ag15
aa(lp708
S'9659155'
p709
ag8
ag8
ag15
aa(lp710
S'9435600'
p711
ag3
ag4
ag5
aa(lp712
S'9305065'
p713
ag3
ag8
ag5
aa(lp714
S'9395992'
p715
ag8
ag4
ag15
aa(lp716
S'9718881'
p717
ag3
ag8
ag5
aa(lp718
S'9905276'
p719
ag3
ag8
ag5
aa(lp720
S'9833835'
p721
ag3
ag8
ag5
aa(lp722
S'9387094'
p723
ag8
ag4
ag15
aa(lp724
S'9494408'
p725
ag3
ag8
ag5
aa(lp726
S'9422008'
p727
ag3
ag8
ag5
aa(lp728
S'9890414'
p729
ag3
ag8
ag5
aa(lp730
S'9984706'
p731
ag8
ag8
ag15
aa(lp732
S'9697466'
p733
ag8
ag8
ag15
aa(lp734
S'9378288'
p735
ag3
ag8
ag5
aa(lp736
S'9803881'
p737
ag8
ag4
ag15
aa(lp738
S'9759454'
p739
ag3
ag4
ag5
aa(lp740
S'9949821'
p741
ag3
ag4
ag5
aa(lp742
S'9682706'
p743
ag3
ag4
ag5
aa(lp744
S'9018489'
p745
ag8
ag4
ag15
aa(lp746
S'9951877'
p747
ag3
ag4
ag5
aa(lp748
S'9133464'
p749
ag3
ag4
ag5
aa(lp750
S'9013634'
p751
ag3
ag4
ag5
aa(lp752
S'9339860'
p753
ag8
ag4
ag15
aa(lp754
S'9070903'
p755
ag8
ag8
ag15
aa(lp756
S'9719243'
p757
ag8
ag4
ag15
aa(lp758
S'9272198'
p759
ag8
ag8
ag15
aa(lp760
S'9878614'
p761
ag8
ag4
ag15
aa(lp762
S'9300212'
p763
ag8
ag4
ag15
aa(lp764
S'9535610'
p765
ag8
ag4
ag15
aa(lp766
S'9788507'
p767
ag3
ag8
ag5
aa(lp768
S'9653214'
p769
ag3
ag4
ag5
aa(lp770
S'9653075'
p771
ag3
ag8
ag5
aa(lp772
S'9378093'
p773
ag8
ag4
ag15
aa(lp774
S'9585175'
p775
ag8
ag8
ag15
aa(lp776
S'9991580'
p777
ag8
ag8
ag15
aa(lp778
S'9519044'
p779
ag3
ag8
ag5
aa(lp780
S'9176992'
p781
ag3
ag4
ag5
aa(lp782
S'9723032'
p783
ag3
ag4
ag5
aa(lp784
S'9966825'
p785
ag8
ag4
ag15
aa(lp786
S'9718167'
p787
ag3
ag4
ag5
aa(lp788
S'9547611'
p789
ag3
ag8
ag5
aa(lp790
S'9875724'
p791
ag8
ag8
ag15
aa(lp792
S'9222916'
p793
ag3
ag8
ag5
aa(lp794
S'9269056'
p795
ag8
ag4
ag15
aa(lp796
S'9854566'
p797
ag3
ag4
ag5
aa(lp798
S'9699340'
p799
ag8
ag4
ag15
aa(lp800
S'9432585'
p801
ag8
ag8
ag15
aa(lp802
S'9684366'
p803
ag3
ag4
ag5
aa(lp804
S'9329159'
p805
ag3
ag8
ag5
aa(lp806
S'9101076'
p807
ag3
ag8
ag5
aa(lp808
S'9037952'
p809
ag3
ag4
ag5
aa(lp810
S'9031930'
p811
ag8
ag8
ag15
aa(lp812
S'9482887'
p813
ag3
ag8
ag5
aa(lp814
S'9527882'
p815
ag8
ag4
ag15
aa(lp816
S'9821982'
p817
ag3
ag8
ag5
aa(lp818
S'9804177'
p819
ag3
ag8
ag5
aa(lp820
S'9825707'
p821
ag8
ag4
ag15
aa(lp822
S'9120059'
p823
ag3
ag8
ag5
aa(lp824
S'9559476'
p825
ag8
ag8
ag15
aa(lp826
S'9361744'
p827
ag3
ag4
ag5
aa(lp828
S'9068197'
p829
ag3
ag8
ag5
aa(lp830
S'9595607'
p831
ag3
ag4
ag5
aa(lp832
S'9183590'
p833
ag8
ag4
ag15
aa(lp834
S'9268724'
p835
ag3
ag8
ag5
aa(lp836
S'9197466'
p837
ag8
ag8
ag15
aa(lp838
S'9062483'
p839
ag3
ag8
ag5
aa(lp840
S'9221040'
p841
ag8
ag4
ag15
aa(lp842
S'9886746'
p843
ag3
ag4
ag5
aa(lp844
S'9524362'
p845
ag8
ag8
ag15
aa(lp846
S'9100442'
p847
ag3
ag4
ag5
aa(lp848
S'9474706'
p849
ag3
ag8
ag5
aa(lp850
S'9356305'
p851
ag8
ag4
ag15
aa(lp852
S'9930620'
p853
ag8
ag4
ag15
aa(lp854
S'9073948'
p855
ag3
ag4
ag5
aa(lp856
S'9451114'
p857
ag3
ag8
ag5
aa(lp858
S'9880717'
p859
ag8
ag4
ag15
aa(lp860
S'9143031'
p861
ag8
ag4
ag15
aa(lp862
S'9505140'
p863
ag3
ag8
ag5
aa(lp864
S'9353397'
p865
ag8
ag4
ag15
aa(lp866
S'9486466'
p867
ag3
ag8
ag5
aa(lp868
S'9941323'
p869
ag8
ag8
ag15
aa(lp870
S'9437009'
p871
ag3
ag8
ag5
aa(lp872
S'9492880'
p873
ag8
ag4
ag15
aa(lp874
S'9942724'
p875
ag3
ag4
ag5
aa(lp876
S'9765966'
p877
ag3
ag4
ag5
aa(lp878
S'9250756'
p879
ag3
ag8
ag5
aa(lp880
S'9657917'
p881
ag8
ag4
ag15
aa(lp882
S'9234667'
p883
ag8
ag8
ag15
aa(lp884
S'9468412'
p885
ag3
ag4
ag5
aa(lp886
S'9992756'
p887
ag3
ag4
ag5
aa(lp888
S'9884784'
p889
ag3
ag8
ag5
aa(lp890
S'9495746'
p891
ag8
ag4
ag15
aa(lp892
S'9469155'
p893
ag8
ag4
ag15
aa(lp894
S'9156214'
p895
ag8
ag8
ag15
aa(lp896
S'9515853'
p897
ag8
ag4
ag15
aa(lp898
S'9137556'
p899
ag8
ag8
ag15
aa(lp900
S'9546159'
p901
ag8
ag8
ag15
aa(lp902
S'9444196'
p903
ag8
ag8
ag15
aa(lp904
S'9907800'
p905
ag3
ag8
ag5
aa(lp906
S'9282203'
p907
ag8
ag8
ag15
aa(lp908
S'9303093'
p909
ag8
ag4
ag15
aa(lp910
S'9833782'
p911
ag3
ag8
ag5
aa(lp912
S'9369690'
p913
ag8
ag8
ag15
aa(lp914
S'9534424'
p915
ag3
ag4
ag5
aa(lp916
S'9329346'
p917
ag3
ag4
ag5
aa(lp918
S'9723972'
p919
ag8
ag8
ag15
aa(lp920
S'9739711'
p921
ag3
ag8
ag5
aa(lp922
S'9384900'
p923
ag8
ag8
ag15
aa(lp924
S'9081799'
p925
ag8
ag8
ag15
aa(lp926
S'9585175'
p927
ag3
ag8
ag5
aa(lp928
S'9461826'
p929
ag3
ag4
ag5
aa(lp930
S'9819744'
p931
ag8
ag8
ag15
aa(lp932
S'9528158'
p933
ag3
ag8
ag5
aa(lp934
S'9905766'
p935
ag8
ag4
ag15
aa(lp936
S'9537961'
p937
ag3
ag4
ag5
aa(lp938
S'9837324'
p939
ag8
ag4
ag15
aa(lp940
S'9422008'
p941
ag8
ag8
ag15
aa(lp942
S'9423086'
p943
ag8
ag8
ag15
aa(lp944
S'9703327'
p945
ag8
ag8
ag15
aa(lp946
S'9516409'
p947
ag8
ag4
ag15
aa(lp948
S'9516833'
p949
ag8
ag8
ag15
aa(lp950
S'9585736'
p951
ag3
ag4
ag5
aa(lp952
S'9628081'
p953
ag3
ag4
ag5
aa(lp954
S'9683704'
p955
ag8
ag8
ag15
aa(lp956
S'9907090'
p957
ag8
ag4
ag15
aa(lp958
S'9025994'
p959
ag8
ag4
ag15
aa(lp960
S'9618226'
p961
ag3
ag4
ag5
aa(lp962
S'9674454'
p963
ag8
ag8
ag15
aa(lp964
S'9026695'
p965
ag8
ag8
ag15
aa(lp966
S'9184192'
p967
ag8
ag4
ag15
aa(lp968
S'9533157'
p969
ag3
ag4
ag5
aa(lp970
S'9754894'
p971
ag3
ag8
ag5
aa(lp972
S'9728442'
p973
ag3
ag8
ag5
aa(lp974
S'9842312'
p975
ag8
ag4
ag15
aa(lp976
S'9372030'
p977
ag8
ag4
ag15
aa(lp978
S'9020999'
p979
ag8
ag4
ag15
aa(lp980
S'9860831'
p981
ag8
ag8
ag15
aa(lp982
S'9896743'
p983
ag8
ag8
ag15
aa(lp984
S'9850238'
p985
ag8
ag8
ag15
aa(lp986
S'9116057'
p987
ag8
ag8
ag15
aa(lp988
S'9686617'
p989
ag3
ag4
ag5
aa(lp990
S'9252629'
p991
ag3
ag8
ag5
aa(lp992
S'9389183'
p993
ag3
ag4
ag5
aa(lp994
S'9684366'
p995
ag8
ag4
ag15
aa(lp996
S'9371355'
p997
ag8
ag4
ag15
aa(lp998
S'9112976'
p999
ag8
ag8
ag15
aa(lp1000
S'9189553'
p1001
ag3
ag8
ag5
aa(lp1002
S'9420682'
p1003
ag3
ag8
ag5
aa(lp1004
S'9532870'
p1005
ag8
ag4
ag15
aa(lp1006
S'9197492'
p1007
ag3
ag8
ag5
aa(lp1008
S'9374235'
p1009
ag3
ag4
ag5
aa(lp1010
S'9543086'
p1011
ag8
ag4
ag15
aa(lp1012
S'9919343'
p1013
ag3
ag4
ag5
aa(lp1014
S'9355016'
p1015
ag8
ag8
ag15
aa(lp1016
S'9272198'
p1017
ag3
ag4
ag5
aa(lp1018
S'9923837'
p1019
ag3
ag8
ag5
aa(lp1020
S'9876296'
p1021
ag8
ag4
ag15
aa(lp1022
S'9251077'
p1023
ag8
ag8
ag15
aa(lp1024
S'9606012'
p1025
ag8
ag8
ag15
aa(lp1026
S'9742563'
p1027
ag8
ag8
ag15
aa(lp1028
S'9988891'
p1029
ag3
ag4
ag5
aa(lp1030
S'9508414'
p1031
ag8
ag4
ag15
aa(lp1032
S'9169022'
p1033
ag8
ag8
ag15
aa(lp1034
S'9113782'
p1035
ag8
ag4
ag15
aa(lp1036
S'9015718'
p1037
ag8
ag4
ag15
aa(lp1038
S'9793680'
p1039
ag8
ag8
ag15
aa(lp1040
S'9453107'
p1041
ag3
ag4
ag5
aa(lp1042
S'9381777'
p1043
ag8
ag8
ag15
aa(lp1044
S'9379540'
p1045
ag8
ag8
ag15
aa(lp1046
S'9646127'
p1047
ag3
ag8
ag5
aa(lp1048
S'9943227'
p1049
ag3
ag8
ag5
aa(lp1050
S'9009623'
p1051
ag8
ag4
ag15
aa(lp1052
S'9408506'
p1053
ag3
ag8
ag5
aa(lp1054
S'9896668'
p1055
ag3
ag8
ag5
aa(lp1056
S'9225792'
p1057
ag3
ag4
ag5
aa(lp1058
S'9842836'
p1059
ag3
ag4
ag5
aa(lp1060
S'9210230'
p1061
ag3
ag8
ag5
aa(lp1062
S'9806159'
p1063
ag8
ag8
ag15
aa(lp1064
S'9236300'
p1065
ag3
ag4
ag5
aa(lp1066
S'9638478'
p1067
ag3
ag4
ag5
aa(lp1068
S'9341167'
p1069
ag3
ag8
ag5
aa(lp1070
S'9703978'
p1071
ag3
ag4
ag5
aa(lp1072
S'9578253'
p1073
ag3
ag4
ag5
aa(lp1074
S'9419364'
p1075
ag8
ag8
ag15
aa(lp1076
S'9597417'
p1077
ag8
ag4
ag15
aa(lp1078
S'9885702'
p1079
ag3
ag8
ag5
aa(lp1080
S'9948792'
p1081
ag8
ag8
ag15
aa(lp1082
S'9883539'
p1083
ag3
ag8
ag5
aa(lp1084
S'9619216'
p1085
ag8
ag8
ag15
aa(lp1086
S'9566495'
p1087
ag3
ag8
ag5
aa(lp1088
S'9252576'
p1089
ag8
ag8
ag15
aa(lp1090
S'9805733'
p1091
ag3
ag4
ag5
aa(lp1092
S'9646687'
p1093
ag3
ag4
ag5
aa(lp1094
S'9739820'
p1095
ag8
ag8
ag15
aa(lp1096
S'9247270'
p1097
ag3
ag8
ag5
aa(lp1098
S'9268652'
p1099
ag8
ag8
ag15
aa(lp1100
S'9449511'
p1101
ag8
ag4
ag15
aa(lp1102
S'9847829'
p1103
ag3
ag8
ag5
aa(lp1104
S'9995338'
p1105
ag8
ag8
ag15
aa(lp1106
S'9746357'
p1107
ag8
ag4
ag15
aa(lp1108
S'9355390'
p1109
ag3
ag4
ag5
aa(lp1110
S'9541406'
p1111
ag3
ag4
ag5
aa(lp1112
S'9276849'
p1113
ag8
ag8
ag15
aa(lp1114
S'9610229'
p1115
ag8
ag4
ag15
aa(lp1116
S'9854620'
p1117
ag3
ag8
ag5
aa(lp1118
S'9017252'
p1119
ag8
ag8
ag15
aa(lp1120
S'9040944'
p1121
ag3
ag8
ag5
aa(lp1122
S'9524666'
p1123
ag3
ag8
ag5
aa(lp1124
S'9329729'
p1125
ag3
ag4
ag5
aa(lp1126
S'9624954'
p1127
ag8
ag4
ag15
aa(lp1128
S'9041946'
p1129
ag8
ag8
ag15
aa(lp1130
S'9893793'
p1131
ag3
ag4
ag5
aa(lp1132
S'9373786'
p1133
ag3
ag4
ag5
aa(lp1134
S'9409501'
p1135
ag3
ag8
ag5
aa(lp1136
S'9474901'
p1137
ag8
ag8
ag15
aa(lp1138
S'9454239'
p1139
ag8
ag8
ag15
aa(lp1140
S'9900761'
p1141
ag3
ag4
ag5
aa(lp1142
S'9609732'
p1143
ag8
ag8
ag15
aa(lp1144
S'9272393'
p1145
ag8
ag4
ag15
aa(lp1146
S'9884710'
p1147
ag8
ag4
ag15
aa(lp1148
S'9759424'
p1149
ag3
ag8
ag5
aa(lp1150
S'9532617'
p1151
ag8
ag8
ag15
aa(lp1152
S'9871240'
p1153
ag3
ag4
ag5
aa(lp1154
S'9712762'
p1155
ag3
ag8
ag5
aa(lp1156
S'9954184'
p1157
ag8
ag4
ag15
aa(lp1158
S'9785978'
p1159
ag8
ag8
ag15
aa(lp1160
S'9454100'
p1161
ag3
ag4
ag5
aa(lp1162
S'9389941'
p1163
ag3
ag8
ag5
aa(lp1164
S'9726418'
p1165
ag3
ag4
ag5
aa(lp1166
S'9154214'
p1167
ag3
ag4
ag5
aa(lp1168
S'9508003'
p1169
ag8
ag8
ag15
aa(lp1170
S'9465265'
p1171
ag3
ag4
ag5
aa(lp1172
S'9576182'
p1173
ag3
ag8
ag5
aa(lp1174
S'9295533'
p1175
ag8
ag4
ag15
aa(lp1176
S'9222048'
p1177
ag8
ag4
ag15
aa(lp1178
S'9432194'
p1179
ag3
ag8
ag5
aa(lp1180
S'9507392'
p1181
ag3
ag8
ag5
aa(lp1182
S'9981815'
p1183
ag8
ag4
ag15
aa(lp1184
S'9485404'
p1185
ag8
ag4
ag15
aa(lp1186
S'9160270'
p1187
ag3
ag4
ag5
aa(lp1188
S'9492880'
p1189
ag3
ag8
ag5
aa(lp1190
S'9252629'
p1191
ag8
ag4
ag15
aa(lp1192
S'9877906'
p1193
ag3
ag8
ag5
aa(lp1194
S'9330186'
p1195
ag8
ag4
ag15
aa(lp1196
S'9574271'
p1197
ag8
ag8
ag15
aa(lp1198
S'9263652'
p1199
ag8
ag4
ag15
aa(lp1200
S'9836330'
p1201
ag8
ag4
ag15
aa(lp1202
S'9777014'
p1203
ag8
ag8
ag15
aa(lp1204
S'9118523'
p1205
ag3
ag8
ag5
aa(lp1206
S'9387265'
p1207
ag8
ag4
ag15
aa(lp1208
S'9417307'
p1209
ag8
ag8
ag15
aa(lp1210
S'9728215'
p1211
ag3
ag4
ag5
aa(lp1212
S'9545340'
p1213
ag8
ag8
ag15
aa(lp1214
S'9261513'
p1215
ag3
ag8
ag5
aa(lp1216
S'9347441'
p1217
ag3
ag4
ag5
aa(lp1218
S'9584690'
p1219
ag8
ag8
ag15
aa(lp1220
S'9621208'
p1221
ag8
ag8
ag15
aa(lp1222
S'9238060'
p1223
ag8
ag4
ag15
aa(lp1224
S'9103449'
p1225
ag3
ag8
ag5
aa(lp1226
S'9636064'
p1227
ag3
ag4
ag5
aa(lp1228
S'9616919'
p1229
ag3
ag8
ag5
aa(lp1230
S'9647913'
p1231
ag3
ag4
ag5
aa(lp1232
S'9207798'
p1233
ag3
ag4
ag5
aa(lp1234
S'9283061'
p1235
ag3
ag4
ag5
aa(lp1236
S'9584925'
p1237
ag3
ag4
ag5
aa(lp1238
S'9934310'
p1239
ag8
ag8
ag15
aa(lp1240
S'9043461'
p1241
ag8
ag4
ag15
aa(lp1242
S'9586482'
p1243
ag3
ag4
ag5
aa(lp1244
S'9302341'
p1245
ag8
ag4
ag15
aa(lp1246
S'9951821'
p1247
ag8
ag4
ag15
aa(lp1248
S'9900690'
p1249
ag8
ag4
ag15
aa(lp1250
S'9461259'
p1251
ag3
ag4
ag5
aa(lp1252
S'9467722'
p1253
ag8
ag8
ag15
aa(lp1254
S'9254853'
p1255
ag3
ag8
ag5
aa(lp1256
S'9615227'
p1257
ag3
ag4
ag5
aa(lp1258
S'9806950'
p1259
ag8
ag8
ag15
aa(lp1260
S'9036287'
p1261
ag3
ag8
ag5
aa(lp1262
S'9101076'
p1263
ag8
ag8
ag15
aa(lp1264
S'9651214'
p1265
ag3
ag8
ag5
aa(lp1266
S'9422075'
p1267
ag8
ag4
ag15
aa(lp1268
S'9201052'
p1269
ag3
ag8
ag5
aa(lp1270
S'9362660'
p1271
ag3
ag8
ag5
aa(lp1272
S'9781555'
p1273
ag8
ag4
ag15
aa(lp1274
S'9480294'
p1275
ag8
ag4
ag15
aa(lp1276
S'9523138'
p1277
ag8
ag8
ag15
aa(lp1278
S'9780275'
p1279
ag8
ag8
ag15
aa(lp1280
S'9854566'
p1281
ag8
ag4
ag15
aa(lp1282
S'9970801'
p1283
ag8
ag4
ag15
aa(lp1284
S'9565513'
p1285
ag8
ag8
ag15
aa(lp1286
S'9631230'
p1287
ag8
ag8
ag15
aa(lp1288
S'9715892'
p1289
ag3
ag4
ag5
aa(lp1290
S'9397088'
p1291
ag3
ag8
ag5
aa(lp1292
S'9301641'
p1293
ag3
ag8
ag5
aa(lp1294
S'9359987'
p1295
ag3
ag4
ag5
aa(lp1296
S'9097360'
p1297
ag8
ag4
ag15
aa(lp1298
S'9656912'
p1299
ag8
ag8
ag15
aa(lp1300
S'9593719'
p1301
ag8
ag4
ag15
aa(lp1302
S'9886047'
p1303
ag8
ag4
ag15
aa(lp1304
S'9890414'
p1305
ag8
ag8
ag15
aa(lp1306
S'9872350'
p1307
ag3
ag4
ag5
aa(lp1308
S'9793543'
p1309
ag8
ag8
ag15
aa(lp1310
S'9621716'
p1311
ag3
ag8
ag5
aa(lp1312
S'9589653'
p1313
ag3
ag4
ag5
aa(lp1314
S'9323060'
p1315
ag8
ag8
ag15
aa(lp1316
S'9572192'
p1317
ag3
ag4
ag5
aa(lp1318
S'9844581'
p1319
ag8
ag8
ag15
aa(lp1320
S'9036316'
p1321
ag3
ag4
ag5
aa(lp1322
S'9787204'
p1323
ag8
ag4
ag15
aa(lp1324
S'9875724'
p1325
ag3
ag4
ag5
aa(lp1326
S'9670198'
p1327
ag3
ag8
ag5
aa(lp1328
S'9567019'
p1329
ag3
ag4
ag5
aa(lp1330
S'9144547'
p1331
ag8
ag4
ag15
aa(lp1332
S'9440005'
p1333
ag3
ag4
ag5
aa(lp1334
S'9340357'
p1335
ag8
ag4
ag15
aa(lp1336
S'9155943'
p1337
ag3
ag4
ag5
aa(lp1338
S'9362978'
p1339
ag8
ag4
ag15
aa(lp1340
S'9225984'
p1341
ag3
ag8
ag5
aa(lp1342
S'9108945'
p1343
ag8
ag4
ag15
aa(lp1344
S'9911082'
p1345
ag8
ag4
ag15
aa(lp1346
S'9821149'
p1347
ag8
ag4
ag15
aa(lp1348
S'9713411'
p1349
ag3
ag8
ag5
aa(lp1350
S'9607213'
p1351
ag8
ag8
ag15
aa(lp1352
S'9031141'
p1353
ag3
ag8
ag5
aa(lp1354
S'9369259'
p1355
ag3
ag4
ag5
aa(lp1356
S'9201046'
p1357
ag3
ag8
ag5
aa(lp1358
S'9484468'
p1359
ag8
ag8
ag15
aa(lp1360
S'9860552'
p1361
ag3
ag8
ag5
aa(lp1362
S'9044788'
p1363
ag8
ag8
ag15
aa(lp1364
S'9485461'
p1365
ag3
ag4
ag5
aa(lp1366
S'9391051'
p1367
ag3
ag4
ag5
aa(lp1368
S'9445104'
p1369
ag8
ag8
ag15
aa(lp1370
S'9984485'
p1371
ag3
ag8
ag5
aa(lp1372
S'9218438'
p1373
ag8
ag8
ag15
aa(lp1374
S'9394122'
p1375
ag8
ag4
ag15
aa(lp1376
S'9502938'
p1377
ag3
ag8
ag5
aa(lp1378
S'9038683'
p1379
ag3
ag4
ag5
aa(lp1380
S'9332151'
p1381
ag8
ag8
ag15
aa(lp1382
S'9357383'
p1383
ag8
ag8
ag15
aa(lp1384
S'9504533'
p1385
ag3
ag4
ag5
aa(lp1386
S'9205505'
p1387
ag3
ag8
ag5
aa(lp1388
S'9272833'
p1389
ag8
ag4
ag15
aa(lp1390
S'9800285'
p1391
ag3
ag8
ag5
aa(lp1392
S'9385984'
p1393
ag3
ag8
ag5
aa(lp1394
S'9003658'
p1395
ag3
ag4
ag5
aa(lp1396
S'9430147'
p1397
ag3
ag8
ag5
aa(lp1398
S'9210505'
p1399
ag8
ag8
ag15
aa(lp1400
S'9793657'
p1401
ag8
ag8
ag15
aa(lp1402
S'9875794'
p1403
ag3
ag4
ag5
aa(lp1404
S'9465298'
p1405
ag8
ag8
ag15
aa(lp1406
S'9771214'
p1407
ag8
ag4
ag15
aa(lp1408
S'9014797'
p1409
ag8
ag8
ag15
aa(lp1410
S'9153792'
p1411
ag8
ag4
ag15
aa(lp1412
S'9695621'
p1413
ag8
ag8
ag15
aa(lp1414
S'9406109'
p1415
ag3
ag4
ag5
aa(lp1416
S'9982251'
p1417
ag3
ag4
ag5
aa(lp1418
S'9653221'
p1419
ag3
ag8
ag5
aa(lp1420
S'9999865'
p1421
ag3
ag8
ag5
aa(lp1422
S'9353339'
p1423
ag3
ag4
ag5
aa(lp1424
S'9926839'
p1425
ag8
ag8
ag15
aa(lp1426
S'9475264'
p1427
ag8
ag8
ag15
aa(lp1428
S'9412037'
p1429
ag3
ag8
ag5
aa(lp1430
S'9525435'
p1431
ag8
ag4
ag15
aa(lp1432
S'9784803'
p1433
ag3
ag8
ag5
aa(lp1434
S'9518827'
p1435
ag8
ag4
ag15
aa(lp1436
S'9096851'
p1437
ag8
ag8
ag15
aa(lp1438
S'9654218'
p1439
ag3
ag4
ag5
aa(lp1440
S'9590267'
p1441
ag3
ag4
ag5
aa(lp1442
S'9449288'
p1443
ag8
ag4
ag15
aa(lp1444
S'9570949'
p1445
ag8
ag8
ag15
aa(lp1446
S'9803586'
p1447
ag8
ag4
ag15
aa(lp1448
S'9197274'
p1449
ag8
ag4
ag15
aa(lp1450
S'9218438'
p1451
ag3
ag8
ag5
aa(lp1452
S'9033275'
p1453
ag3
ag4
ag5
aa(lp1454
S'9766889'
p1455
ag3
ag8
ag5
aa(lp1456
S'9766202'
p1457
ag3
ag8
ag5
aa(lp1458
S'9496386'
p1459
ag8
ag8
ag15
aa(lp1460
S'9660697'
p1461
ag3
ag8
ag5
aa(lp1462
S'9501369'
p1463
ag3
ag8
ag5
aa(lp1464
S'9567621'
p1465
ag8
ag8
ag15
aa(lp1466
S'9677587'
p1467
ag3
ag4
ag5
aa(lp1468
S'9172581'
p1469
ag3
ag4
ag5
aa(lp1470
S'9726418'
p1471
ag8
ag4
ag15
aa(lp1472
S'9501342'
p1473
ag3
ag8
ag5
aa(lp1474
S'9872828'
p1475
ag8
ag8
ag15
aa(lp1476
S'9086407'
p1477
ag8
ag8
ag15
aa(lp1478
S'9197546'
p1479
ag8
ag4
ag15
aa(lp1480
S'9268233'
p1481
ag3
ag8
ag5
aa(lp1482
S'9218916'
p1483
ag8
ag8
ag15
aa(lp1484
S'9256532'
p1485
ag3
ag8
ag5
aa(lp1486
S'9445104'
p1487
ag3
ag4
ag5
aa(lp1488
S'9079361'
p1489
ag8
ag8
ag15
aa(lp1490
S'9339860'
p1491
ag3
ag8
ag5
aa(lp1492
S'9776018'
p1493
ag8
ag4
ag15
aa(lp1494
S'9461271'
p1495
ag3
ag4
ag5
aa(lp1496
S'9403165'
p1497
ag8
ag8
ag15
aa(lp1498
S'9089627'
p1499
ag8
ag4
ag15
aa(lp1500
S'9859873'
p1501
ag8
ag4
ag15
aa(lp1502
S'9400081'
p1503
ag3
ag4
ag5
aa(lp1504
S'9832457'
p1505
ag3
ag4
ag5
aa(lp1506
S'9223285'
p1507
ag8
ag8
ag15
aa(lp1508
S'9179589'
p1509
ag8
ag4
ag15
aa(lp1510
S'9372977'
p1511
ag3
ag4
ag5
aa(lp1512
S'9355648'
p1513
ag3
ag8
ag5
aa(lp1514
S'9452269'
p1515
ag8
ag4
ag15
aa(lp1516
S'9413039'
p1517
ag3
ag4
ag5
aa(lp1518
S'9503434'
p1519
ag3
ag8
ag5
aa(lp1520
S'9483766'
p1521
ag8
ag4
ag15
aa(lp1522
S'9310086'
p1523
ag8
ag8
ag15
aa(lp1524
S'9858747'
p1525
ag3
ag4
ag5
aa(lp1526
S'9480211'
p1527
ag8
ag4
ag15
aa(lp1528
S'9369982'
p1529
ag8
ag8
ag15
aa(lp1530
S'9805931'
p1531
ag3
ag8
ag5
aa(lp1532
S'9295223'
p1533
ag3
ag8
ag5
aa(lp1534
S'9440307'
p1535
ag3
ag8
ag5
aa(lp1536
S'9373786'
p1537
ag8
ag8
ag15
aa(lp1538
S'9318127'
p1539
ag3
ag4
ag5
aa(lp1540
S'9453274'
p1541
ag3
ag8
ag5
aa(lp1542
S'9652149'
p1543
ag8
ag4
ag15
aa(lp1544
S'9751381'
p1545
ag8
ag4
ag15
aa(lp1546
S'9158313'
p1547
ag8
ag4
ag15
aa(lp1548
S'9424368'
p1549
ag8
ag4
ag15
aa(lp1550
S'9213372'
p1551
ag3
ag4
ag5
aa(lp1552
S'9951122'
p1553
ag3
ag4
ag5
aa(lp1554
S'9203057'
p1555
ag8
ag4
ag15
aa(lp1556
S'9193589'
p1557
ag8
ag4
ag15
aa(lp1558
S'9066677'
p1559
ag3
ag8
ag5
aa(lp1560
S'9692368'
p1561
ag3
ag4
ag5
aa(lp1562
S'9265023'
p1563
ag8
ag4
ag15
aa(lp1564
S'9434114'
p1565
ag8
ag8
ag15
aa(lp1566
S'9278158'
p1567
ag8
ag8
ag15
aa(lp1568
S'9513843'
p1569
ag8
ag4
ag15
aa(lp1570
S'9476561'
p1571
ag8
ag8
ag15
aa(lp1572
S'9280204'
p1573
ag3
ag4
ag5
aa(lp1574
S'9891691'
p1575
ag8
ag8
ag15
aa(lp1576
S'9778272'
p1577
ag3
ag4
ag5
aa(lp1578
S'9345493'
p1579
ag8
ag4
ag15
aa(lp1580
S'9613942'
p1581
ag3
ag4
ag5
aa(lp1582
S'9805234'
p1583
ag3
ag4
ag5
aa(lp1584
S'9005075'
p1585
ag8
ag4
ag15
aa(lp1586
S'9518337'
p1587
ag8
ag4
ag15
aa(lp1588
S'9057192'
p1589
ag3
ag4
ag5
aa(lp1590
S'9808730'
p1591
ag3
ag4
ag5
aa(lp1592
S'9208283'
p1593
ag8
ag4
ag15
aa(lp1594
S'9990355'
p1595
ag3
ag8
ag5
aa(lp1596
S'9916496'
p1597
ag8
ag4
ag15
aa(lp1598
S'9067323'
p1599
ag3
ag8
ag5
aa(lp1600
S'9241424'
p1601
ag8
ag4
ag15
aa(lp1602
S'9744444'
p1603
ag3
ag8
ag5
aa(lp1604
S'9948016'
p1605
ag3
ag8
ag5
aa(lp1606
S'9102297'
p1607
ag8
ag8
ag15
aa(lp1608
S'9195845'
p1609
ag3
ag8
ag5
aa(lp1610
S'9079361'
p1611
ag3
ag8
ag5
aa(lp1612
S'9364362'
p1613
ag3
ag4
ag5
aa(lp1614
S'9289020'
p1615
ag3
ag8
ag5
aa(lp1616
S'9184790'
p1617
ag8
ag8
ag15
aa(lp1618
S'9117304'
p1619
ag8
ag4
ag15
aa(lp1620
S'9692368'
p1621
ag8
ag4
ag15
aa(lp1622
S'9558611'
p1623
ag8
ag8
ag15
aa(lp1624
S'9975778'
p1625
ag8
ag8
ag15
aa(lp1626
S'9794140'
p1627
ag8
ag4
ag15
aa(lp1628
S'9409935'
p1629
ag3
ag8
ag5
aa(lp1630
S'9008820'
p1631
ag3
ag4
ag5
aa(lp1632
S'9445880'
p1633
ag3
ag4
ag5
aa(lp1634
S'9193038'
p1635
ag8
ag4
ag15
aa(lp1636
S'9743560'
p1637
ag3
ag8
ag5
aa(lp1638
S'9533664'
p1639
ag3
ag4
ag5
aa(lp1640
S'9780275'
p1641
ag3
ag8
ag5
aa(lp1642
S'9842266'
p1643
ag3
ag4
ag5
aa(lp1644
S'9378389'
p1645
ag8
ag4
ag15
aa(lp1646
S'9589708'
p1647
ag3
ag4
ag5
aa(lp1648
S'9029791'
p1649
ag3
ag8
ag5
aa(lp1650
S'9871347'
p1651
ag8
ag8
ag15
aa(lp1652
S'9402367'
p1653
ag8
ag8
ag15
aa(lp1654
S'9022703'
p1655
ag3
ag4
ag5
aa(lp1656
S'9754373'
p1657
ag8
ag4
ag15
aa(lp1658
S'9973199'
p1659
ag3
ag8
ag5
aa(lp1660
S'9007904'
p1661
ag8
ag4
ag15
aa(lp1662
S'9628393'
p1663
ag8
ag8
ag15
aa(lp1664
S'9341903'
p1665
ag3
ag4
ag5
aa(lp1666
S'9670198'
p1667
ag8
ag4
ag15
aa(lp1668
S'9927054'
p1669
ag3
ag4
ag5
aa(lp1670
S'9435421'
p1671
ag8
ag8
ag15
aa(lp1672
S'9927054'
p1673
ag8
ag4
ag15
aa(lp1674
S'9578931'
p1675
ag8
ag4
ag15
aa(lp1676
S'9464766'
p1677
ag8
ag8
ag15
aa(lp1678
S'9038962'
p1679
ag3
ag8
ag5
aa(lp1680
S'9444132'
p1681
ag3
ag4
ag5
aa(lp1682
S'9689083'
p1683
ag8
ag8
ag15
aa(lp1684
S'9555124'
p1685
ag3
ag4
ag5
aa(lp1686
S'9009927'
p1687
ag3
ag8
ag5
aa(lp1688
S'9828312'
p1689
ag8
ag4
ag15
aa(lp1690
S'9007904'
p1691
ag3
ag4
ag5
aa(lp1692
S'9282888'
p1693
ag8
ag8
ag15
aa(lp1694
S'9877252'
p1695
ag3
ag4
ag5
aa(lp1696
S'9646917'
p1697
ag3
ag4
ag5
aa(lp1698
S'9849372'
p1699
ag3
ag8
ag5
aa(lp1700
S'9719999'
p1701
ag3
ag8
ag5
aa(lp1702
S'9739273'
p1703
ag3
ag8
ag5
aa(lp1704
S'9724907'
p1705
ag3
ag4
ag5
aa(lp1706
S'9619227'
p1707
ag8
ag4
ag15
aa(lp1708
S'9061162'
p1709
ag8
ag8
ag15
aa(lp1710
S'9471214'
p1711
ag8
ag4
ag15
aa(lp1712
S'9564036'
p1713
ag3
ag4
ag5
aa(lp1714
S'9041458'
p1715
ag3
ag4
ag5
aa(lp1716
S'9230073'
p1717
ag8
ag8
ag15
aa(lp1718
S'9577425'
p1719
ag3
ag4
ag5
aa(lp1720
S'9981798'
p1721
ag3
ag8
ag5
aa(lp1722
S'9885702'
p1723
ag8
ag8
ag15
aa(lp1724
S'9161024'
p1725
ag3
ag8
ag5
aa(lp1726
S'9171714'
p1727
ag8
ag4
ag15
aa(lp1728
S'9619157'
p1729
ag3
ag4
ag5
aa(lp1730
S'9953302'
p1731
ag3
ag4
ag5
aa(lp1732
S'9261557'
p1733
ag3
ag4
ag5
aa(lp1734
S'9013941'
p1735
ag8
ag4
ag15
aa(lp1736
S'9209042'
p1737
ag8
ag4
ag15
aa(lp1738
S'9258864'
p1739
ag8
ag8
ag15
aa(lp1740
S'9417063'
p1741
ag3
ag8
ag5
aa(lp1742
S'9207016'
p1743
ag3
ag4
ag5
aa(lp1744
S'9070923'
p1745
ag8
ag4
ag15
aa(lp1746
S'9063934'
p1747
ag3
ag4
ag5
aa(lp1748
S'9692923'
p1749
ag3
ag8
ag5
aa(lp1750
S'9112400'
p1751
ag8
ag8
ag15
aa(lp1752
S'9160801'
p1753
ag3
ag8
ag5
aa(lp1754
S'9250574'
p1755
ag3
ag4
ag5
aa(lp1756
S'9786191'
p1757
ag8
ag4
ag15
aa(lp1758
S'9792833'
p1759
ag3
ag8
ag5
aa(lp1760
S'9561576'
p1761
ag3
ag8
ag5
aa(lp1762
S'9005321'
p1763
ag8
ag8
ag15
aa(lp1764
S'9684211'
p1765
ag3
ag4
ag5
aa(lp1766
S'9507392'
p1767
ag8
ag8
ag15
aa(lp1768
S'9553355'
p1769
ag8
ag4
ag15
aa(lp1770
S'9292027'
p1771
ag8
ag4
ag15
aa(lp1772
S'9434010'
p1773
ag3
ag4
ag5
aa(lp1774
S'9665973'
p1775
ag8
ag4
ag15
aa(lp1776
S'9483456'
p1777
ag8
ag8
ag15
aa(lp1778
S'9871731'
p1779
ag3
ag4
ag5
aa(lp1780
S'9281052'
p1781
ag3
ag8
ag5
aa(lp1782
S'9708416'
p1783
ag8
ag4
ag15
aa(lp1784
S'9326076'
p1785
ag3
ag4
ag5
aa(lp1786
S'9310976'
p1787
ag8
ag4
ag15
aa(lp1788
S'9358131'
p1789
ag8
ag8
ag15
aa(lp1790
S'9674667'
p1791
ag8
ag4
ag15
aa(lp1792
S'9957519'
p1793
ag3
ag8
ag5
aa(lp1794
S'9508858'
p1795
ag8
ag4
ag15
aa(lp1796
S'9522128'
p1797
ag8
ag8
ag15
aa(lp1798
S'9496443'
p1799
ag8
ag8
ag15
aa(lp1800
S'9763679'
p1801
ag3
ag4
ag5
aa(lp1802
S'9889762'
p1803
ag8
ag8
ag15
aa(lp1804
S'9504627'
p1805
ag3
ag4
ag5
aa(lp1806
S'9480338'
p1807
ag8
ag8
ag15
aa(lp1808
S'9593694'
p1809
ag3
ag8
ag5
aa(lp1810
S'9697466'
p1811
ag3
ag4
ag5
aa(lp1812
S'9230504'
p1813
ag3
ag4
ag5
aa(lp1814
S'9049447'
p1815
ag3
ag8
ag5
aa(lp1816
S'9848263'
p1817
ag3
ag8
ag5
aa(lp1818
S'9907767'
p1819
ag8
ag4
ag15
aa(lp1820
S'9860552'
p1821
ag8
ag8
ag15
aa(lp1822
S'9323403'
p1823
ag3
ag4
ag5
aa(lp1824
S'9128923'
p1825
ag3
ag4
ag5
aa(lp1826
S'9332085'
p1827
ag3
ag8
ag5
aa(lp1828
S'9410253'
p1829
ag8
ag4
ag15
aa(lp1830
S'9001104'
p1831
ag3
ag4
ag5
aa(lp1832
S'9743577'
p1833
ag3
ag4
ag5
aa(lp1834
S'9566429'
p1835
ag8
ag8
ag15
aa(lp1836
S'9271853'
p1837
ag8
ag8
ag15
aa(lp1838
S'9370237'
p1839
ag8
ag8
ag15
aa(lp1840
S'9960949'
p1841
ag3
ag4
ag5
aa(lp1842
S'9699399'
p1843
ag8
ag4
ag15
aa(lp1844
S'9642695'
p1845
ag8
ag8
ag15
aa(lp1846
S'9865771'
p1847
ag8
ag8
ag15
aa(lp1848
S'9695379'
p1849
ag8
ag4
ag15
aa(lp1850
S'9630153'
p1851
ag8
ag4
ag15
aa(lp1852
S'9528886'
p1853
ag3
ag8
ag5
aa(lp1854
S'9014209'
p1855
ag3
ag8
ag5
aa(lp1856
S'9426421'
p1857
ag3
ag8
ag5
aa(lp1858
S'9789295'
p1859
ag8
ag4
ag15
aa(lp1860
S'9509294'
p1861
ag8
ag8
ag15
aa(lp1862
S'9435855'
p1863
ag8
ag4
ag15
aa(lp1864
S'9905383'
p1865
ag3
ag4
ag5
aa(lp1866
S'9677734'
p1867
ag3
ag8
ag5
aa(lp1868
S'9266787'
p1869
ag3
ag4
ag5
aa(lp1870
S'9395235'
p1871
ag3
ag8
ag5
aa(lp1872
S'9422393'
p1873
ag3
ag4
ag5
aa(lp1874
S'9002316'
p1875
ag3
ag8
ag5
aa(lp1876
S'9255715'
p1877
ag8
ag8
ag15
aa(lp1878
S'9820245'
p1879
ag8
ag4
ag15
aa(lp1880
S'9747255'
p1881
ag3
ag8
ag5
aa(lp1882
S'9804177'
p1883
ag8
ag8
ag15
aa(lp1884
S'9455100'
p1885
ag3
ag4
ag5
aa(lp1886
S'9844581'
p1887
ag3
ag8
ag5
aa(lp1888
S'9314305'
p1889
ag8
ag4
ag15
aa(lp1890
S'9721284'
p1891
ag8
ag8
ag15
aa(lp1892
S'9700206'
p1893
ag3
ag8
ag5
aa(lp1894
S'9909903'
p1895
ag8
ag4
ag15
aa(lp1896
S'9629158'
p1897
ag3
ag4
ag5
aa(lp1898
S'9775237'
p1899
ag3
ag8
ag5
aa(lp1900
S'9287295'
p1901
ag3
ag4
ag5
aa(lp1902
S'9704911'
p1903
ag3
ag4
ag5
aa(lp1904
S'9023193'
p1905
ag3
ag4
ag5
aa(lp1906
S'9741448'
p1907
ag3
ag8
ag5
aa(lp1908
S'9369690'
p1909
ag3
ag4
ag5
aa(lp1910
S'9154214'
p1911
ag8
ag8
ag15
aa(lp1912
S'9676996'
p1913
ag3
ag4
ag5
aa(lp1914
S'9657917'
p1915
ag3
ag4
ag5
aa(lp1916
S'9115859'
p1917
ag8
ag4
ag15
aa(lp1918
S'9668982'
p1919
ag3
ag4
ag5
aa(lp1920
S'9164965'
p1921
ag8
ag8
ag15
aa(lp1922
S'9168534'
p1923
ag3
ag8
ag5
aa(lp1924
S'9423358'
p1925
ag3
ag4
ag5
aa(lp1926
S'9676996'
p1927
ag8
ag8
ag15
aa(lp1928
S'9009067'
p1929
ag3
ag4
ag5
aa(lp1930
S'9407340'
p1931
ag8
ag4
ag15
aa(lp1932
S'9255535'
p1933
ag8
ag8
ag15
aa(lp1934
S'9371094'
p1935
ag8
ag4
ag15
aa(lp1936
S'9015798'
p1937
ag3
ag4
ag5
aa(lp1938
S'9202047'
p1939
ag8
ag8
ag15
aa(lp1940
S'9742066'
p1941
ag3
ag4
ag5
aa(lp1942
S'9464295'
p1943
ag3
ag4
ag5
aa(lp1944
S'9086407'
p1945
ag3
ag4
ag5
aa(lp1946
S'9476354'
p1947
ag3
ag4
ag5
aa(lp1948
S'9388978'
p1949
ag3
ag4
ag5
aa(lp1950
S'9436426'
p1951
ag8
ag8
ag15
aa(lp1952
S'9566781'
p1953
ag3
ag4
ag5
aa(lp1954
S'9431280'
p1955
ag3
ag4
ag5
aa(lp1956
S'9161012'
p1957
ag3
ag4
ag5
aa(lp1958
S'9753007'
p1959
ag3
ag8
ag5
aa(lp1960
S'9275309'
p1961
ag3
ag4
ag5
aa(lp1962
S'9065433'
p1963
ag8
ag8
ag15
aa(lp1964
S'9373076'
p1965
ag8
ag4
ag15
aa(lp1966
S'9686908'
p1967
ag8
ag4
ag15
aa(lp1968
S'9541124'
p1969
ag8
ag8
ag15
aa(lp1970
S'9780632'
p1971
ag8
ag4
ag15
aa(lp1972
S'9947742'
p1973
ag8
ag4
ag15
aa(lp1974
S'9467722'
p1975
ag3
ag8
ag5
aa(lp1976
S'9545340'
p1977
ag3
ag8
ag5
aa(lp1978
S'9398062'
p1979
ag3
ag8
ag5
aa(lp1980
S'9075418'
p1981
ag8
ag4
ag15
aa(lp1982
S'9622185'
p1983
ag8
ag4
ag15
aa(lp1984
S'9310332'
p1985
ag8
ag8
ag15
aa(lp1986
S'9993261'
p1987
ag3
ag8
ag5
aa(lp1988
S'9662112'
p1989
ag8
ag8
ag15
aa(lp1990
S'9608137'
p1991
ag8
ag8
ag15
aa(lp1992
S'9450853'
p1993
ag8
ag4
ag15
aa(lp1994
S'9535610'
p1995
ag3
ag4
ag5
aa(lp1996
S'9142030'
p1997
ag8
ag4
ag15
aa(lp1998
S'9261557'
p1999
ag8
ag4
ag15
aa(lp2000
S'9928272'
p2001
ag3
ag8
ag5
aa(lp2002
S'9457863'
p2003
ag3
ag8
ag5
aa(lp2004
S'9728094'
p2005
ag8
ag8
ag15
aa(lp2006
S'9153013'
p2007
ag8
ag8
ag15
aa(lp2008
S'9958526'
p2009
ag3
ag4
ag5
aa(lp2010
S'9043461'
p2011
ag3
ag4
ag5
aa(lp2012
S'9802822'
p2013
ag3
ag4
ag5
aa(lp2014
S'9028904'
p2015
ag3
ag8
ag5
aa(lp2016
S'9219500'
p2017
ag8
ag8
ag15
aa(lp2018
S'9708353'
p2019
ag3
ag4
ag5
aa(lp2020
S'9878707'
p2021
ag3
ag4
ag5
aa(lp2022
S'9066820'
p2023
ag8
ag4
ag15
aa(lp2024
S'9746250'
p2025
ag3
ag4
ag5
aa(lp2026
S'9367389'
p2027
ag3
ag4
ag5
aa(lp2028
S'9843822'
p2029
ag3
ag4
ag5
aa(lp2030
S'9043945'
p2031
ag8
ag8
ag15
aa(lp2032
S'9502938'
p2033
ag8
ag8
ag15
aa(lp2034
S'9172013'
p2035
ag3
ag4
ag5
aa(lp2036
S'9656559'
p2037
ag3
ag4
ag5
aa(lp2038
S'9744568'
p2039
ag3
ag4
ag5
aa(lp2040
S'9398079'
p2041
ag3
ag4
ag5
aa(lp2042
S'9914231'
p2043
ag3
ag4
ag5
aa(lp2044
S'9192585'
p2045
ag3
ag4
ag5
aa(lp2046
S'9084244'
p2047
ag3
ag8
ag5
aa(lp2048
S'9101270'
p2049
ag3
ag8
ag5
aa(lp2050
S'9771727'
p2051
ag8
ag8
ag15
aa(lp2052
S'9331053'
p2053
ag8
ag8
ag15
aa(lp2054
S'9850328'
p2055
ag3
ag4
ag5
aa(lp2056
S'9564509'
p2057
ag3
ag8
ag5
aa(lp2058
S'9727207'
p2059
ag3
ag8
ag5
aa(lp2060
S'9346398'
p2061
ag3
ag4
ag5
aa(lp2062
S'9355016'
p2063
ag3
ag8
ag5
aa(lp2064
S'9669962'
p2065
ag8
ag4
ag15
aa(lp2066
S'9542889'
p2067
ag8
ag8
ag15
aa(lp2068
S'9762600'
p2069
ag8
ag8
ag15
aa(lp2070
S'9656390'
p2071
ag8
ag8
ag15
aa(lp2072
S'9746250'
p2073
ag8
ag4
ag15
aa(lp2074
S'9931097'
p2075
ag3
ag8
ag5
aa(lp2076
S'9623707'
p2077
ag8
ag8
ag15
aa(lp2078
S'9291210'
p2079
ag8
ag8
ag15
aa(lp2080
S'9267027'
p2081
ag3
ag4
ag5
aa(lp2082
S'9964232'
p2083
ag3
ag4
ag5
aa(lp2084
S'9072646'
p2085
ag8
ag4
ag15
aa(lp2086
S'9686621'
p2087
ag8
ag4
ag15
aa(lp2088
S'9038962'
p2089
ag8
ag4
ag15
aa(lp2090
S'9935439'
p2091
ag3
ag4
ag5
aa(lp2092
S'9504056'
p2093
ag3
ag8
ag5
aa(lp2094
S'9253225'
p2095
ag8
ag4
ag15
aa(lp2096
S'9411598'
p2097
ag3
ag4
ag5
aa(lp2098
S'9255053'
p2099
ag3
ag4
ag5
aa(lp2100
S'9387130'
p2101
ag3
ag8
ag5
aa(lp2102
S'9657654'
p2103
ag3
ag8
ag5
aa(lp2104
S'9935307'
p2105
ag8
ag4
ag15
aa(lp2106
S'9738547'
p2107
ag8
ag4
ag15
aa(lp2108
S'9270566'
p2109
ag8
ag8
ag15
aa(lp2110
S'9902576'
p2111
ag3
ag8
ag5
aa(lp2112
S'9081858'
p2113
ag3
ag8
ag5
aa(lp2114
S'9656390'
p2115
ag3
ag8
ag5
aa(lp2116
S'9455270'
p2117
ag8
ag8
ag15
aa(lp2118
S'9929823'
p2119
ag8
ag4
ag15
aa(lp2120
S'9308482'
p2121
ag3
ag4
ag5
aa(lp2122
S'9400725'
p2123
ag3
ag4
ag5
aa(lp2124
S'9405034'
p2125
ag3
ag4
ag5
aa(lp2126
S'9923099'
p2127
ag8
ag8
ag15
aa(lp2128
S'9780632'
p2129
ag3
ag4
ag5
aa(lp2130
S'9850845'
p2131
ag3
ag4
ag5
aa(lp2132
S'9250222'
p2133
ag3
ag4
ag5
aa(lp2134
S'9043446'
p2135
ag3
ag4
ag5
aa(lp2136
S'9833809'
p2137
ag8
ag8
ag15
aa(lp2138
S'9519898'
p2139
ag3
ag4
ag5
aa(lp2140
S'9429115'
p2141
ag8
ag8
ag15
aa(lp2142
S'9554126'
p2143
ag3
ag4
ag5
aa(lp2144
S'9125977'
p2145
ag3
ag8
ag5
aa(lp2146
S'9460109'
p2147
ag3
ag4
ag5
aa(lp2148
S'9836547'
p2149
ag3
ag4
ag5
aa(lp2150
S'9055361'
p2151
ag8
ag8
ag15
aa(lp2152
S'9952108'
p2153
ag3
ag4
ag5
aa(lp2154
S'9034963'
p2155
ag3
ag4
ag5
aa(lp2156
S'9935827'
p2157
ag3
ag4
ag5
aa(lp2158
S'9309716'
p2159
ag8
ag4
ag15
aa(lp2160
S'9657654'
p2161
ag8
ag8
ag15
aa(lp2162
S'9903394'
p2163
ag8
ag8
ag15
aa(lp2164
S'9510418'
p2165
ag3
ag8
ag5
aa(lp2166
S'9466142'
p2167
ag3
ag4
ag5
aa(lp2168
S'9051960'
p2169
ag8
ag4
ag15
aa(lp2170
S'9084244'
p2171
ag8
ag8
ag15
aa(lp2172
S'9651397'
p2173
ag3
ag4
ag5
aa(lp2174
S'9533617'
p2175
ag3
ag4
ag5
aa(lp2176
S'9803881'
p2177
ag3
ag8
ag5
aa(lp2178
S'9828044'
p2179
ag8
ag4
ag15
aa(lp2180
S'9636690'
p2181
ag3
ag4
ag5
aa(lp2182
S'9412037'
p2183
ag8
ag8
ag15
aa(lp2184
S'9128270'
p2185
ag3
ag8
ag5
aa(lp2186
S'9643665'
p2187
ag3
ag8
ag5
aa(lp2188
S'9624154'
p2189
ag8
ag8
ag15
aa(lp2190
S'9493869'
p2191
ag3
ag8
ag5
aa(lp2192
S'9099363'
p2193
ag8
ag8
ag15
aa(lp2194
S'9686617'
p2195
ag8
ag4
ag15
aa(lp2196
S'9341903'
p2197
ag8
ag4
ag15
aa(lp2198
S'9973722'
p2199
ag8
ag4
ag15
aa(lp2200
S'9081635'
p2201
ag8
ag8
ag15
aa(lp2202
S'9376146'
p2203
ag8
ag4
ag15
aa(lp2204
S'9502727'
p2205
ag8
ag8
ag15
aa(lp2206
S'9241014'
p2207
ag3
ag8
ag5
aa(lp2208
S'9452479'
p2209
ag3
ag4
ag5
aa(lp2210
S'9095103'
p2211
ag8
ag4
ag15
aa(lp2212
S'9826718'
p2213
ag3
ag8
ag5
aa(lp2214
S'9088345'
p2215
ag3
ag8
ag5
aa(lp2216
S'9244516'
p2217
ag8
ag8
ag15
aa(lp2218
S'9143014'
p2219
ag3
ag8
ag5
aa(lp2220
S'9253390'
p2221
ag3
ag8
ag5
aa(lp2222
S'9938236'
p2223
ag8
ag4
ag15
aa(lp2224
S'9039627'
p2225
ag8
ag8
ag15
aa(lp2226
S'9209792'
p2227
ag8
ag4
ag15
aa(lp2228
S'9303044'
p2229
ag3
ag4
ag5
aa(lp2230
S'9037697'
p2231
ag8
ag4
ag15
aa(lp2232
S'9992843'
p2233
ag8
ag4
ag15
aa(lp2234
S'9383004'
p2235
ag8
ag4
ag15
aa(lp2236
S'9398970'
p2237
ag8
ag4
ag15
aa(lp2238
S'9203957'
p2239
ag3
ag8
ag5
aa(lp2240
S'9819149'
p2241
ag8
ag4
ag15
aa(lp2242
S'9460225'
p2243
ag3
ag8
ag5
aa(lp2244
S'9728094'
p2245
ag3
ag4
ag5
aa(lp2246
S'9614515'
p2247
ag3
ag8
ag5
aa(lp2248
S'9396242'
p2249
ag8
ag8
ag15
aa(lp2250
S'9203516'
p2251
ag8
ag4
ag15
aa(lp2252
S'9815657'
p2253
ag8
ag4
ag15
aa(lp2254
S'9325209'
p2255
ag3
ag8
ag5
aa(lp2256
S'9368084'
p2257
ag3
ag4
ag5
aa(lp2258
S'9503723'
p2259
ag8
ag4
ag15
aa(lp2260
S'9771115'
p2261
ag3
ag4
ag5
aa(lp2262
S'9149679'
p2263
ag8
ag4
ag15
aa(lp2264
S'9834325'
p2265
ag8
ag4
ag15
aa(lp2266
S'9934064'
p2267
ag8
ag8
ag15
aa(lp2268
S'9594608'
p2269
ag8
ag8
ag15
aa(lp2270
S'9652894'
p2271
ag8
ag4
ag15
aa(lp2272
S'9186589'
p2273
ag3
ag4
ag5
aa(lp2274
S'9369286'
p2275
ag3
ag8
ag5
aa(lp2276
S'9980752'
p2277
ag8
ag4
ag15
aa(lp2278
S'9634690'
p2279
ag3
ag8
ag5
aa(lp2280
S'9223980'
p2281
ag3
ag8
ag5
aa(lp2282
S'9962045'
p2283
ag3
ag4
ag5
aa(lp2284
S'9042459'
p2285
ag8
ag4
ag15
aa(lp2286
S'9067811'
p2287
ag8
ag4
ag15
aa(lp2288
S'9898669'
p2289
ag8
ag8
ag15
aa(lp2290
S'9005656'
p2291
ag3
ag4
ag5
aa(lp2292
S'9728442'
p2293
ag8
ag8
ag15
aa(lp2294
S'9131911'
p2295
ag8
ag8
ag15
aa(lp2296
S'9906664'
p2297
ag8
ag4
ag15
aa(lp2298
S'9751381'
p2299
ag3
ag8
ag5
aa(lp2300
S'9120941'
p2301
ag8
ag4
ag15
aa(lp2302
S'9686777'
p2303
ag8
ag8
ag15
aa(lp2304
S'9399980'
p2305
ag8
ag4
ag15
aa(lp2306
S'9487864'
p2307
ag3
ag8
ag5
aa(lp2308
S'9245519'
p2309
ag8
ag4
ag15
aa(lp2310
S'9780482'
p2311
ag3
ag8
ag5
aa(lp2312
S'9258864'
p2313
ag3
ag8
ag5
aa(lp2314
S'9034812'
p2315
ag8
ag8
ag15
aa(lp2316
S'9409941'
p2317
ag8
ag8
ag15
aa(lp2318
S'9847541'
p2319
ag3
ag4
ag5
aa(lp2320
S'9402139'
p2321
ag8
ag8
ag15
aa(lp2322
S'9718992'
p2323
ag8
ag8
ag15
aa(lp2324
S'9517914'
p2325
ag8
ag8
ag15
aa(lp2326
S'9918304'
p2327
ag3
ag8
ag5
aa(lp2328
S'9393975'
p2329
ag3
ag4
ag5
aa(lp2330
S'9346033'
p2331
ag3
ag8
ag5
aa(lp2332
S'9810692'
p2333
ag3
ag4
ag5
aa(lp2334
S'9406033'
p2335
ag3
ag8
ag5
aa(lp2336
S'9368408'
p2337
ag8
ag8
ag15
aa(lp2338
S'9664670'
p2339
ag8
ag4
ag15
aa(lp2340
S'9867611'
p2341
ag3
ag4
ag5
aa(lp2342
S'9104620'
p2343
ag3
ag8
ag5
aa(lp2344
S'9432148'
p2345
ag8
ag8
ag15
aa(lp2346
S'9635644'
p2347
ag3
ag8
ag5
aa(lp2348
S'9407138'
p2349
ag3
ag4
ag5
aa(lp2350
S'9824274'
p2351
ag8
ag8
ag15
aa(lp2352
S'9690658'
p2353
ag3
ag8
ag5
aa(lp2354
S'9618967'
p2355
ag8
ag4
ag15
aa(lp2356
S'9429147'
p2357
ag3
ag8
ag5
aa(lp2358
S'9229585'
p2359
ag3
ag4
ag5
aa(lp2360
S'9076127'
p2361
ag8
ag4
ag15
aa(lp2362
S'9629158'
p2363
ag8
ag4
ag15
aa(lp2364
S'9528034'
p2365
ag3
ag4
ag5
aa(lp2366
S'9253390'
p2367
ag8
ag4
ag15
aa(lp2368
S'9243198'
p2369
ag3
ag4
ag5
aa(lp2370
S'9569715'
p2371
ag3
ag8
ag5
aa(lp2372
S'9407018'
p2373
ag8
ag8
ag15
aa(lp2374
S'9184495'
p2375
ag3
ag4
ag5
aa(lp2376
S'9571939'
p2377
ag8
ag4
ag15
aa(lp2378
S'9306384'
p2379
ag8
ag8
ag15
aa(lp2380
S'9268052'
p2381
ag8
ag8
ag15
aa(lp2382
S'9647703'
p2383
ag8
ag8
ag15
aa(lp2384
S'9248710'
p2385
ag3
ag4
ag5
aa(lp2386
S'9302260'
p2387
ag8
ag8
ag15
aa(lp2388
S'9590002'
p2389
ag8
ag4
ag15
aa(lp2390
S'9555603'
p2391
ag3
ag4
ag5
aa(lp2392
S'9443223'
p2393
ag8
ag8
ag15
aa(lp2394
S'9426880'
p2395
ag8
ag4
ag15
aa(lp2396
S'9816138'
p2397
ag8
ag8
ag15
aa(lp2398
S'9102958'
p2399
ag8
ag8
ag15
aa(lp2400
S'9100862'
p2401
ag3
ag8
ag5
aa(lp2402
S'9821149'
p2403
ag3
ag4
ag5
aa(lp2404
S'9396994'
p2405
ag3
ag8
ag5
aa(lp2406
S'9509294'
p2407
ag3
ag8
ag5
aa(lp2408
S'9717977'
p2409
ag3
ag8
ag5
aa(lp2410
S'9375317'
p2411
ag3
ag8
ag5
aa(lp2412
S'9294354'
p2413
ag3
ag4
ag5
aa(lp2414
S'9092247'
p2415
ag8
ag4
ag15
aa(lp2416
S'9262149'
p2417
ag3
ag8
ag5
aa(lp2418
S'9924366'
p2419
ag3
ag4
ag5
aa(lp2420
S'9473912'
p2421
ag8
ag8
ag15
aa(lp2422
S'9921260'
p2423
ag8
ag4
ag15
aa(lp2424
S'9294761'
p2425
ag8
ag8
ag15
aa(lp2426
S'9395262'
p2427
ag8
ag4
ag15
aa(lp2428
S'9980274'
p2429
ag8
ag4
ag15
aa(lp2430
S'9979265'
p2431
ag3
ag4
ag5
aa(lp2432
S'9635414'
p2433
ag8
ag8
ag15
aa(lp2434
S'9962232'
p2435
ag3
ag8
ag5
aa(lp2436
S'9070787'
p2437
ag3
ag4
ag5
aa(lp2438
S'9549868'
p2439
ag8
ag4
ag15
aa(lp2440
S'9806459'
p2441
ag3
ag4
ag5
aa(lp2442
S'9510900'
p2443
ag3
ag4
ag5
aa(lp2444
S'9224012'
p2445
ag8
ag4
ag15
aa(lp2446
S'9427182'
p2447
ag3
ag4
ag5
aa(lp2448
S'9063928'
p2449
ag3
ag8
ag5
aa(lp2450
S'9002316'
p2451
ag8
ag4
ag15
aa(lp2452
S'9308271'
p2453
ag3
ag4
ag5
aa(lp2454
S'9841269'
p2455
ag3
ag4
ag5
aa(lp2456
S'9893482'
p2457
ag8
ag4
ag15
aa(lp2458
S'9416063'
p2459
ag8
ag4
ag15
aa(lp2460
S'9420706'
p2461
ag8
ag8
ag15
aa(lp2462
S'9455361'
p2463
ag3
ag4
ag5
aa(lp2464
S'9297957'
p2465
ag8
ag8
ag15
aa(lp2466
S'9419076'
p2467
ag3
ag4
ag5
aa(lp2468
S'9209533'
p2469
ag8
ag4
ag15
aa(lp2470
S'9925594'
p2471
ag8
ag8
ag15
aa(lp2472
S'9364232'
p2473
ag8
ag8
ag15
aa(lp2474
S'9448315'
p2475
ag8
ag4
ag15
aa(lp2476
S'9628616'
p2477
ag3
ag8
ag5
aa(lp2478
S'9011949'
p2479
ag8
ag4
ag15
aa(lp2480
S'9258219'
p2481
ag3
ag4
ag5
aa(lp2482
S'9021428'
p2483
ag3
ag4
ag5
aa(lp2484
S'9809967'
p2485
ag8
ag8
ag15
aa(lp2486
S'9068742'
p2487
ag8
ag8
ag15
aa(lp2488
S'9916319'
p2489
ag3
ag8
ag5
aa(lp2490
S'9580736'
p2491
ag3
ag4
ag5
aa(lp2492
S'9838317'
p2493
ag8
ag4
ag15
aa(lp2494
S'9667253'
p2495
ag3
ag4
ag5
aa(lp2496
S'9061666'
p2497
ag8
ag8
ag15
aa(lp2498
S'9837774'
p2499
ag8
ag4
ag15
aa(lp2500
S'9975280'
p2501
ag3
ag8
ag5
aa(lp2502
S'9362264'
p2503
ag3
ag8
ag5
aa(lp2504
S'9617689'
p2505
ag3
ag8
ag5
aa(lp2506
S'9088175'
p2507
ag8
ag4
ag15
aa(lp2508
S'9509417'
p2509
ag3
ag8
ag5
aa(lp2510
S'9680194'
p2511
ag8
ag8
ag15
aa(lp2512
S'9926617'
p2513
ag8
ag8
ag15
aa(lp2514
S'9479978'
p2515
ag8
ag8
ag15
aa(lp2516
S'9763603'
p2517
ag8
ag8
ag15
aa(lp2518
S'9684605'
p2519
ag8
ag4
ag15
aa(lp2520
S'9149679'
p2521
ag3
ag8
ag5
aa(lp2522
S'9820271'
p2523
ag8
ag8
ag15
aa(lp2524
S'9725081'
p2525
ag8
ag4
ag15
aa.